Certificate:
    Data:
        Version: 3 (0x2)
        Serial Number: 14484236672110353128 (0xc902588333d2dae8)
    Signature Algorithm: sha256WithRSAEncryption
        Issuer: CN=test_ca
        Validity
            Not Before: Sep 27 16:51:31 2017 GMT
            Not After : Sep 25 16:51:31 2027 GMT
        Subject: CN=behave
        Subject Public Key Info:
            Public Key Algorithm: rsaEncryption
                Public-Key: (2048 bit)
                Modulus:
                    00:a1:2a:fe:9e:5f:d0:be:5c:f6:f2:93:cc:8b:e4:
                    b8:61:e3:a7:5a:98:24:2f:5a:eb:64:e4:fa:2c:3a:
                    49:75:ec:42:92:8c:dc:4c:c2:c8:3a:5c:0a:58:00:
                    f7:25:01:f1:b4:c4:f2:49:47:1e:7b:70:7b:54:c2:
                    fa:19:4b:a3:3a:1f:49:79:4b:c1:09:a0:41:c0:28:
                    f4:09:4f:d7:b1:4c:44:ff:b9:41:b1:8e:c8:93:7e:
                    d9:fe:31:fe:48:56:b5:df:d1:fa:e4:ac:92:7f:1a:
                    bc:aa:56:03:0b:e4:68:cd:55:a8:08:6c:6a:21:af:
                    e9:ad:66:43:57:e7:e2:30:59:59:e0:7b:50:d9:b0:
                    41:22:35:a2:80:08:45:3c:bd:6d:b0:5a:4c:98:e3:
                    24:3a:57:25:11:b5:73:a9:a1:21:88:f6:ae:34:1b:
                    97:5a:1a:a8:39:0d:80:28:3a:f3:e7:82:ea:86:fb:
                    12:68:52:16:90:9e:2f:67:4e:f0:1a:8f:41:2d:55:
                    07:be:14:cd:d1:6d:68:25:09:c7:d6:bc:c8:06:40:
                    8d:0e:35:0f:8f:3a:9a:e4:8a:69:c7:3a:ea:5a:d5:
                    0d:42:5b:ca:08:c0:66:3b:61:56:f9:05:42:c9:06:
                    4f:d4:69:97:c8:dc:ec:31:16:99:ae:d8:ba:cf:96:
                    c6:1d
                Exponent: 65537 (0x10001)
        X509v3 extensions:
            X509v3 Subject Alternative Name: 
                DNS:behave, DNS:localhost
            X509v3 Basic Constraints: 
                CA:FALSE
            X509v3 Key Usage: 
                Digital Signature, Non Repudiation, Key Encipherment
            X509v3 Extended Key Usage: 
                TLS Web Server Authentication, TLS Web Client Authentication, Code Signing, E-mail Protection
            X509v3 Subject Key Identifier: 
                EB:A1:23:45:C3:09:9C:E9:D3:86:7E:58:8E:73:0A:61:A5:DA:99:F2
            X509v3 Authority Key Identifier: 
                keyid:C5:5D:D6:32:A3:00:93:95:5A:F6:C1:18:73:32:30:E0:AE:74:24:EA

    Signature Algorithm: sha256WithRSAEncryption
         9d:d0:93:d6:0f:d2:7d:32:e3:88:0e:86:9c:42:57:a9:a5:fe:
         87:23:14:39:29:94:3c:ec:d7:16:c6:25:44:f5:bb:c1:46:79:
         a9:f2:ca:44:44:30:32:24:81:9d:93:51:ea:a3:b0:10:b8:15:
         cb:e2:48:88:e3:54:0c:5a:02:2f:77:3c:19:fe:de:17:60:59:
         74:ee:0a:b0:d0:76:4a:55:39:af:e7:12:f9:bd:55:1c:d2:47:
         ce:ed:7c:ee:2a:58:df:54:5f:35:7a:0d:2a:30:98:69:e2:ba:
         9f:15:c8:89:65:c1:d6:d2:a7:3e:12:ac:d3:10:80:52:f6:64:
         fa:36:e2:eb:c2:b0:bb:4a:52:6f:ae:ee:7b:4e:f5:5b:0f:f5:
         7b:18:9a:44:49:d4:83:8b:24:f3:86:29:02:e8:a7:94:fa:96:
         d0:4a:af:60:d7:24:df:c7:6e:5f:59:0e:b3:30:0a:e7:b9:fa:
         ae:0a:ba:c8:7d:48:20:46:db:02:fd:2d:82:f6:2f:16:f8:c1:
         95:08:6b:75:d3:72:fb:d7:22:29:34:3c:b2:a3:87:b3:bd:bc:
         0c:ff:fa:fa:3f:6c:83:0f:35:89:76:92:dc:a1:a1:72:ec:94:
         10:26:e2:80:da:63:ea:25:06:c8:c3:cc:1d:5e:54:85:fa:5b:
         34:9d:69:c7:ef:ce:0a:7b:06:ed:07:f2:f7:e2:8e:3b:22:43:
         2b:0b:dc:7d:91:59:d4:25:10:93:d6:9c:a0:aa:97:23:01:00:
         37:8f:a3:36:c2:6d:83:3b:be:4d:df:26:b3:41:1b:e2:dc:df:
         f2:90:d5:ef:dc:96:c9:d7:d8:99:47:79:3f:9f:0d:eb:92:6b:
         e2:6d:6c:dc:d7:08:0f:2f:81:81:e6:ae:0e:89:9c:ab:a7:33:
         a2:18:ad:3b:20:91:47:ca:12:ca:42:c7:b6:8a:2f:b3:83:14:
         2d:6d:fa:38:29:d9:0f:9a:e9:33:e2:8c:78:8a:ef:b0:83:73:
         d8:f4:f2:89:7a:ce:61:fa:fb:18:64:e6:49:91:b8:f1:95:23:
         6c:14:f7:8e:78:e8:f6:53:28:7b:00:3a:57:b2:f2:48:74:e2:
         16:b2:60:f8:8b:8a:d2:58:b5:4e:d5:45:d5:ff:da:27:6d:2a:
         bd:7e:a4:c7:77:17:51:27:5e:75:33:b8:e1:7d:50:2f:32:2b:
         f6:e2:af:a1:df:9d:8d:e7:9a:6b:57:d8:54:82:e0:0f:e0:a6:
         6c:68:06:bb:b4:a0:96:a4:67:71:74:3f:c8:d7:cd:a5:40:85:
         20:c1:3c:98:08:a4:f4:7c:cc:ab:5b:1e:cb:bb:fb:bf:28:5d:
         4c:eb:08:30:cc:48:bc:ad
-----BEGIN CERTIFICATE-----
MIIEUzCCAjugAwIBAgIJAMkCWIMz0troMA0GCSqGSIb3DQEBCwUAMBIxEDAOBgNV
BAMMB3Rlc3RfY2EwHhcNMTcwOTI3MTY1MTMxWhcNMjcwOTI1MTY1MTMxWjARMQ8w
DQYDVQQDDAZiZWhhdmUwggEiMA0GCSqGSIb3DQEBAQUAA4IBDwAwggEKAoIBAQCh
Kv6eX9C+XPbyk8yL5Lhh46damCQvWutk5PosOkl17EKSjNxMwsg6XApYAPclAfG0
xPJJRx57cHtUwvoZS6M6H0l5S8EJoEHAKPQJT9exTET/uUGxjsiTftn+Mf5IVrXf
0frkrJJ/GryqVgML5GjNVagIbGohr+mtZkNX5+IwWVnge1DZsEEiNaKACEU8vW2w
WkyY4yQ6VyURtXOpoSGI9q40G5daGqg5DYAoOvPnguqG+xJoUhaQni9nTvAaj0Et
VQe+FM3RbWglCcfWvMgGQI0ONQ+POprkimnHOupa1Q1CW8oIwGY7YVb5BULJBk/U
aZfI3OwxFpmu2LrPlsYdAgMBAAGjgawwgakwHAYDVR0RBBUwE4IGYmVoYXZlggls
b2NhbGhvc3QwCQYDVR0TBAIwADALBgNVHQ8EBAMCBeAwMQYDVR0lBCowKAYIKwYB
BQUHAwEGCCsGAQUFBwMCBggrBgEFBQcDAwYIKwYBBQUHAwQwHQYDVR0OBBYEFOuh
I0XDCZzp04Z+WI5zCmGl2pnyMB8GA1UdIwQYMBaAFMVd1jKjAJOVWvbBGHMyMOCu
dCTqMA0GCSqGSIb3DQEBCwUAA4ICAQCd0JPWD9J9MuOIDoacQleppf6HIxQ5KZQ8
7NcWxiVE9bvBRnmp8spERDAyJIGdk1Hqo7AQuBXL4kiI41QMWgIvdzwZ/t4XYFl0
7gqw0HZKVTmv5xL5vVUc0kfO7XzuKljfVF81eg0qMJhp4rqfFciJZcHW0qc+EqzT
EIBS9mT6NuLrwrC7SlJvru57TvVbD/V7GJpESdSDiyTzhikC6KeU+pbQSq9g1yTf
x25fWQ6zMArnufquCrrIfUggRtsC/S2C9i8W+MGVCGt103L71yIpNDyyo4ezvbwM
//r6P2yDDzWJdpLcoaFy7JQQJuKA2mPqJQbIw8wdXlSF+ls0nWnH784KewbtB/L3
4o47IkMrC9x9kVnUJRCT1pygqpcjAQA3j6M2wm2DO75N3yazQRvi3N/ykNXv3JbJ
19iZR3k/nw3rkmvibWzc1wgPL4GB5q4OiZyrpzOiGK07IJFHyhLKQse2ii+zgxQt
bfo4KdkPmukz4ox4iu+wg3PY9PKJes5h+vsYZOZJkbjxlSNsFPeOeOj2Uyh7ADpX
svJIdOIWsmD4i4rSWLVO1UXV/9onbSq9fqTHdxdRJ151M7jhfVAvMiv24q+h352N
55prV9hUguAP4KZsaAa7tKCWpGdxdD/I182lQIUgwTyYCKT0fMyrWx7Lu/u/KF1M
6wgwzEi8rQ==
-----END CERTIFICATE-----
