Certificate:
    Data:
        Version: 3 (0x2)
        Serial Number:
            0e:ec:e5:3e:fd:a3:f9:05:c9:19:ca:b4:cd:ef:90:dd:e3:4f:13:25
        Signature Algorithm: sha256WithRSAEncryption
        Issuer: CN=test-ca
        Validity
            Not Before: Aug 19 15:27:41 2022 GMT
            Not After : Aug 16 15:27:41 2032 GMT
        Subject: CN=behave
        Subject Public Key Info:
            Public Key Algorithm: rsaEncryption
                RSA Public-Key: (2048 bit)
                Modulus:
                    00:cd:b0:36:89:75:08:2a:65:2e:4f:c6:a6:12:c7:
                    ae:62:00:16:86:3a:d2:93:f0:a6:31:c9:47:e6:a5:
                    44:d0:0a:42:c9:36:fd:e6:34:bb:19:f7:e3:ab:f0:
                    11:d9:82:57:d9:bd:98:39:df:95:9f:70:1e:56:db:
                    9e:30:8a:dc:4d:be:7e:35:2b:1e:4a:2f:67:33:cc:
                    e8:b5:00:c8:6f:8a:43:96:c4:48:02:22:5a:ea:53:
                    34:a8:28:de:69:f9:6b:df:00:7d:29:26:e0:39:ad:
                    b5:04:e3:92:c9:3a:ca:c3:0d:4f:5c:65:dc:d7:2b:
                    de:96:da:3e:0b:85:13:26:e5:75:9a:0b:e9:66:8e:
                    73:74:42:98:ad:5d:23:38:a3:75:4a:63:a1:c7:1b:
                    cf:2f:c8:1f:56:3a:19:10:b3:4c:7e:57:b4:f5:d3:
                    6a:1a:37:42:c0:d8:60:55:53:d3:1a:fe:76:7e:33:
                    5e:d2:d2:8a:78:2e:ff:7f:2b:6b:e7:b9:a8:71:c7:
                    83:f5:12:01:d7:c2:fa:3d:92:86:58:55:55:c7:c1:
                    e6:fb:1e:44:c9:e5:bb:53:ed:3c:e7:3e:8b:37:6a:
                    50:56:9e:e7:67:f5:c1:d3:18:fb:01:c8:e2:2d:2c:
                    1a:32:19:97:80:b1:46:1e:17:8b:bd:f6:2e:8b:b5:
                    ec:e9
                Exponent: 65537 (0x10001)
        X509v3 extensions:
            X509v3 Subject Alternative Name: 
                DNS:behave, DNS:localhost
            X509v3 Basic Constraints: 
                CA:FALSE
            X509v3 Key Usage: 
                Digital Signature, Non Repudiation, Key Encipherment
            X509v3 Extended Key Usage: 
                TLS Web Server Authentication, TLS Web Client Authentication, Code Signing, E-mail Protection
            X509v3 Subject Key Identifier: 
                96:01:EE:AA:50:C4:B7:5C:85:ED:E4:3C:74:21:A0:25:38:46:8A:89
            X509v3 Authority Key Identifier: 
                keyid:7E:23:BF:98:68:F1:9F:FB:80:13:D7:52:42:49:E9:1C:E1:95:07:79

    Signature Algorithm: sha256WithRSAEncryption
         00:46:2a:d7:89:d8:1f:7f:ee:95:35:93:6e:75:53:f5:01:c5:
         08:4e:4d:62:3b:1b:9f:0b:92:cd:f9:68:35:6e:6f:a6:d3:a7:
         01:10:4f:eb:d9:2d:0b:ee:18:6c:60:09:1e:d4:c0:7a:a1:ab:
         99:cf:10:32:81:a9:07:8f:29:db:b1:22:f3:ed:ed:69:14:a4:
         64:70:01:04:17:17:c1:8e:b5:fe:23:a2:b1:9e:66:91:ee:ae:
         5a:e5:06:64:7f:08:9b:93:29:46:8c:e5:d8:50:13:71:3e:0e:
         6d:d8:6e:81:30:c0:b0:4a:ef:ad:98:77:ab:15:94:1c:81:b0:
         2a:17:e8:1d:61:22:50:5f:1d:05:c0:0e:6e:f3:d7:14:f4:9c:
         06:fa:de:53:c7:78:4b:9d:40:67:9a:ae:4e:42:20:dc:fa:80:
         56:dd:cf:39:f5:37:fe:1a:fb:46:21:7a:ee:dc:54:1c:7b:85:
         5a:44:03:21:1e:12:da:2d:ba:4c:23:f1:a5:21:56:3c:17:52:
         cf:81:20:14:55:03:97:56:f1:56:fa:95:08:ab:69:81:8d:76:
         40:97:f0:8f:12:a2:a2:40:d6:04:74:37:8a:7c:d3:d0:98:49:
         4b:05:af:16:82:9b:bc:a9:0e:0b:65:79:74:90:8b:55:01:c7:
         bc:73:2c:ce:ee:9c:3d:53:2c:ab:da:4e:9d:30:c6:60:ec:f8:
         f5:86:21:da:52:fb:d8:80:fc:0c:7b:ae:b1:90:6a:ab:be:a6:
         be:bd:86:32:2a:4a:de:3a:31:e4:78:78:23:08:29:3f:c2:cf:
         62:fb:97:33:fb:0f:a9:ba:b8:4b:39:3e:da:2a:0e:16:96:e9:
         db:70:8d:56:09:e8:3c:8e:cc:b8:4c:66:07:be:98:f7:c1:a4:
         b8:a8:fc:3d:d8:15:67:4c:01:18:ed:93:4b:25:c5:5b:33:5f:
         01:61:ba:02:7a:3c:a8:f9:b9:34:5e:95:9e:7f:52:a4:0a:7e:
         9d:f7:d7:0d:82:86:bb:c0:b0:26:c9:e9:c1:2a:8a:e3:6f:bb:
         19:39:c1:bb:40:da:df:93:e0:cf:69:3c:8c:3d:d8:7f:94:7c:
         0d:f2:db:39:d8:0d:08:75:88:e9:3d:99:4a:f0:66:cb:c0:fe:
         a2:c1:af:49:86:e6:35:5e:ed:44:6c:d0:c5:1a:cf:f3:d4:9d:
         46:00:59:4c:e5:06:8f:ef:64:dd:f2:5e:06:83:98:4c:dd:3d:
         71:a3:a3:94:bf:8a:04:10:f9:0e:6b:58:bc:2f:e8:b8:6f:f4:
         b0:f3:e0:6d:8d:f7:be:b4:b3:3d:00:4b:ee:b5:dd:4c:5c:dc:
         05:12:a2:6d:20:ac:65:ce
-----BEGIN CERTIFICATE-----
MIIEXjCCAkagAwIBAgIUDuzlPv2j+QXJGcq0ze+Q3eNPEyUwDQYJKoZIhvcNAQEL
BQAwEjEQMA4GA1UEAwwHdGVzdC1jYTAeFw0yMjA4MTkxNTI3NDFaFw0zMjA4MTYx
NTI3NDFaMBExDzANBgNVBAMMBmJlaGF2ZTCCASIwDQYJKoZIhvcNAQEBBQADggEP
ADCCAQoCggEBAM2wNol1CCplLk/GphLHrmIAFoY60pPwpjHJR+alRNAKQsk2/eY0
uxn346vwEdmCV9m9mDnflZ9wHlbbnjCK3E2+fjUrHkovZzPM6LUAyG+KQ5bESAIi
WupTNKgo3mn5a98AfSkm4DmttQTjksk6ysMNT1xl3Ncr3pbaPguFEybldZoL6WaO
c3RCmK1dIzijdUpjoccbzy/IH1Y6GRCzTH5XtPXTaho3QsDYYFVT0xr+dn4zXtLS
ingu/38ra+e5qHHHg/USAdfC+j2ShlhVVcfB5vseRMnlu1PtPOc+izdqUFae52f1
wdMY+wHI4i0sGjIZl4CxRh4Xi732Lou17OkCAwEAAaOBrDCBqTAcBgNVHREEFTAT
ggZiZWhhdmWCCWxvY2FsaG9zdDAJBgNVHRMEAjAAMAsGA1UdDwQEAwIF4DAxBgNV
HSUEKjAoBggrBgEFBQcDAQYIKwYBBQUHAwIGCCsGAQUFBwMDBggrBgEFBQcDBDAd
BgNVHQ4EFgQUlgHuqlDEt1yF7eQ8dCGgJThGiokwHwYDVR0jBBgwFoAUfiO/mGjx
n/uAE9dSQknpHOGVB3kwDQYJKoZIhvcNAQELBQADggIBAABGKteJ2B9/7pU1k251
U/UBxQhOTWI7G58Lks35aDVub6bTpwEQT+vZLQvuGGxgCR7UwHqhq5nPEDKBqQeP
KduxIvPt7WkUpGRwAQQXF8GOtf4jorGeZpHurlrlBmR/CJuTKUaM5dhQE3E+Dm3Y
boEwwLBK762Yd6sVlByBsCoX6B1hIlBfHQXADm7z1xT0nAb63lPHeEudQGeark5C
INz6gFbdzzn1N/4a+0Yheu7cVBx7hVpEAyEeEtotukwj8aUhVjwXUs+BIBRVA5dW
8Vb6lQiraYGNdkCX8I8SoqJA1gR0N4p809CYSUsFrxaCm7ypDgtleXSQi1UBx7xz
LM7unD1TLKvaTp0wxmDs+PWGIdpS+9iA/Ax7rrGQaqu+pr69hjIqSt46MeR4eCMI
KT/Cz2L7lzP7D6m6uEs5PtoqDhaW6dtwjVYJ6DyOzLhMZge+mPfBpLio/D3YFWdM
ARjtk0slxVszXwFhugJ6PKj5uTRelZ5/UqQKfp331w2ChrvAsCbJ6cEqiuNvuxk5
wbtA2t+T4M9pPIw92H+UfA3y2znYDQh1iOk9mUrwZsvA/qLBr0mG5jVe7URs0MUa
z/PUnUYAWUzlBo/vZN3yXgaDmEzdPXGjo5S/igQQ+Q5rWLwv6Lhv9LDz4G2N9760
sz0AS+613Uxc3AUSom0grGXO
-----END CERTIFICATE-----
