Certificate:
    Data:
        Version: 3 (0x2)
        Serial Number:
            61:32:83:18:b7:6c:37:85:dd:3b:b6:08:29:62:b6:3e:84:07:a7:6b
        Signature Algorithm: sha256WithRSAEncryption
        Issuer: CN=test_ca
        Validity
            Not Before: Jun 11 19:45:01 2021 GMT
            Not After : Jun  9 19:45:01 2031 GMT
        Subject: CN=behave
        Subject Public Key Info:
            Public Key Algorithm: rsaEncryption
                RSA Public-Key: (2048 bit)
                Modulus:
                    00:d3:52:06:46:5e:de:7c:77:b9:0f:4e:88:80:75:
                    2b:b1:12:44:97:80:cf:d8:6a:26:7a:23:6e:dc:64:
                    2e:f1:63:92:f4:42:53:ea:41:cf:e2:ad:49:83:1e:
                    90:f0:1e:b1:10:54:26:21:a1:86:31:79:14:8f:f3:
                    90:83:a1:41:7c:0c:d0:02:b6:ea:a1:47:e3:36:56:
                    b4:a6:e4:0b:2f:3a:79:7f:7b:5b:31:26:53:fd:88:
                    66:ea:4a:b1:cd:9f:99:31:2e:27:b8:81:37:df:39:
                    48:3e:2f:ba:b2:f8:93:a4:75:52:14:49:c2:5f:c2:
                    aa:bc:3e:73:12:96:8b:58:17:64:d1:c5:26:3f:f8:
                    2c:8b:8c:a9:c7:e5:90:b6:ab:7c:d0:88:a6:9e:f6:
                    7e:af:cd:5d:d2:6d:54:70:2b:30:e1:d3:ec:1e:df:
                    fb:f1:45:44:0d:c0:38:ed:51:2a:37:51:fb:68:50:
                    67:ba:8f:91:b2:bf:e9:0d:eb:0a:5f:2d:1a:2f:8f:
                    8e:7a:df:70:63:a8:2e:cf:62:54:91:b9:21:09:2d:
                    05:23:a9:88:e4:f8:6b:b6:38:36:dc:38:1b:e1:a9:
                    04:a8:da:50:4d:f4:33:04:a0:98:33:b4:4b:ed:03:
                    c6:df:64:95:3b:d3:1d:08:94:56:96:26:c1:e3:14:
                    c0:0d
                Exponent: 65537 (0x10001)
        X509v3 extensions:
            X509v3 Subject Alternative Name: 
                DNS:behave, DNS:localhost
            X509v3 Basic Constraints: 
                CA:FALSE
            X509v3 Key Usage: 
                Digital Signature, Non Repudiation, Key Encipherment
            X509v3 Extended Key Usage: 
                TLS Web Server Authentication, TLS Web Client Authentication, Code Signing, E-mail Protection
            X509v3 Subject Key Identifier: 
                CA:23:91:5F:E5:F8:F3:FB:14:B4:9D:6E:AF:5A:9D:28:0C:2E:AA:76
            X509v3 Authority Key Identifier: 
                keyid:9D:AC:EC:CC:91:0F:6D:29:B6:0F:D2:1E:45:69:83:29:2E:49:15:1A

    Signature Algorithm: sha256WithRSAEncryption
         74:12:bb:ba:c1:b2:b2:74:26:f9:80:a1:01:7d:a1:e0:ae:58:
         20:8a:a5:4d:ac:cb:10:d7:9c:a0:cb:89:74:21:a5:ea:10:d4:
         6f:e2:6f:3e:e8:93:5b:f0:6a:81:4f:cc:88:16:c9:a9:18:13:
         07:8d:f3:6a:da:cc:ef:fe:09:12:69:d3:7c:e9:e9:6b:fc:03:
         8c:c3:4e:35:3b:9e:39:9c:95:2d:09:94:9e:a4:71:4c:68:41:
         32:29:a6:10:11:ae:e1:1a:56:29:96:6e:5e:44:56:92:29:00:
         ca:fa:f5:37:ec:62:3e:5d:ab:94:71:5d:c3:e4:04:26:db:bd:
         3c:27:bc:0f:f6:08:1a:2e:5e:1d:e4:20:d0:28:17:77:79:65:
         6e:25:cf:0c:3d:4a:17:85:eb:6e:7e:1d:90:f5:a0:8a:8a:b8:
         1b:4c:ec:7e:d9:73:74:56:11:b9:40:b0:58:84:85:e0:aa:20:
         d4:5d:73:db:7e:a5:78:d3:5b:f8:b6:51:3e:75:f1:c3:ec:b1:
         51:87:34:3c:b1:ec:14:8e:a7:19:af:dd:08:6b:b7:8f:c3:c0:
         88:a8:14:9a:76:a7:56:9e:69:2f:6a:c6:7f:2c:af:3f:79:40:
         50:72:d5:52:ec:32:5a:89:47:c9:8e:7e:dc:5f:f5:b0:2f:50:
         96:eb:5e:1c:26:a6:7e:45:49:77:da:3f:41:75:89:14:b6:81:
         0f:38:7b:35:1a:f2:40:4c:89:b2:7c:c0:86:dd:0e:11:0a:84:
         8c:d0:6e:8d:e1:c3:bb:95:62:74:4f:81:54:09:03:b3:12:ec:
         60:55:15:6f:27:d6:45:92:35:b0:52:f7:5a:4d:19:ce:e9:44:
         bf:6f:cd:04:35:fd:54:6e:20:a3:02:11:25:43:f9:c3:40:3e:
         6d:73:b3:0e:f3:80:8a:ec:69:84:a9:34:66:5c:53:41:96:26:
         0d:31:22:e4:4a:e7:9a:02:ea:3b:f4:4f:e5:1a:39:a5:74:f5:
         2a:27:29:31:3e:cc:da:1a:49:a2:c1:c6:10:6c:0d:49:9c:61:
         9d:a7:26:72:03:4a:43:88:d6:c4:49:0e:4c:49:48:1a:6c:45:
         cb:03:77:41:50:b9:9d:31:9c:0f:94:f6:85:35:45:e6:31:20:
         9b:e5:11:33:c2:91:b1:21:3f:0d:5d:41:3b:48:32:e0:32:e9:
         10:fd:d3:a2:39:de:64:e6:a7:7c:bf:cb:fa:87:25:d5:dd:b1:
         75:d7:63:fa:68:35:dc:51:24:aa:4b:91:fd:85:ea:25:d7:6d:
         7f:ef:e9:dc:f6:69:69:ee:97:4e:81:52:d6:b1:10:05:cd:a4:
         b7:1f:ef:8e:30:4a:cd:73
-----BEGIN CERTIFICATE-----
MIIEXjCCAkagAwIBAgIUYTKDGLdsN4XdO7YIKWK2PoQHp2swDQYJKoZIhvcNAQEL
BQAwEjEQMA4GA1UEAwwHdGVzdF9jYTAeFw0yMTA2MTExOTQ1MDFaFw0zMTA2MDkx
OTQ1MDFaMBExDzANBgNVBAMMBmJlaGF2ZTCCASIwDQYJKoZIhvcNAQEBBQADggEP
ADCCAQoCggEBANNSBkZe3nx3uQ9OiIB1K7ESRJeAz9hqJnojbtxkLvFjkvRCU+pB
z+KtSYMekPAesRBUJiGhhjF5FI/zkIOhQXwM0AK26qFH4zZWtKbkCy86eX97WzEm
U/2IZupKsc2fmTEuJ7iBN985SD4vurL4k6R1UhRJwl/Cqrw+cxKWi1gXZNHFJj/4
LIuMqcflkLarfNCIpp72fq/NXdJtVHArMOHT7B7f+/FFRA3AOO1RKjdR+2hQZ7qP
kbK/6Q3rCl8tGi+PjnrfcGOoLs9iVJG5IQktBSOpiOT4a7Y4Ntw4G+GpBKjaUE30
MwSgmDO0S+0Dxt9klTvTHQiUVpYmweMUwA0CAwEAAaOBrDCBqTAcBgNVHREEFTAT
ggZiZWhhdmWCCWxvY2FsaG9zdDAJBgNVHRMEAjAAMAsGA1UdDwQEAwIF4DAxBgNV
HSUEKjAoBggrBgEFBQcDAQYIKwYBBQUHAwIGCCsGAQUFBwMDBggrBgEFBQcDBDAd
BgNVHQ4EFgQUyiORX+X48/sUtJ1ur1qdKAwuqnYwHwYDVR0jBBgwFoAUnazszJEP
bSm2D9IeRWmDKS5JFRowDQYJKoZIhvcNAQELBQADggIBAHQSu7rBsrJ0JvmAoQF9
oeCuWCCKpU2syxDXnKDLiXQhpeoQ1G/ibz7ok1vwaoFPzIgWyakYEweN82razO/+
CRJp03zp6Wv8A4zDTjU7njmclS0JlJ6kcUxoQTIpphARruEaVimWbl5EVpIpAMr6
9TfsYj5dq5RxXcPkBCbbvTwnvA/2CBouXh3kINAoF3d5ZW4lzww9SheF625+HZD1
oIqKuBtM7H7Zc3RWEblAsFiEheCqINRdc9t+pXjTW/i2UT518cPssVGHNDyx7BSO
pxmv3Qhrt4/DwIioFJp2p1aeaS9qxn8srz95QFBy1VLsMlqJR8mOftxf9bAvUJbr
Xhwmpn5FSXfaP0F1iRS2gQ84ezUa8kBMibJ8wIbdDhEKhIzQbo3hw7uVYnRPgVQJ
A7MS7GBVFW8n1kWSNbBS91pNGc7pRL9vzQQ1/VRuIKMCESVD+cNAPm1zsw7zgIrs
aYSpNGZcU0GWJg0xIuRK55oC6jv0T+UaOaV09SonKTE+zNoaSaLBxhBsDUmcYZ2n
JnIDSkOI1sRJDkxJSBpsRcsDd0FQuZ0xnA+U9oU1ReYxIJvlETPCkbEhPw1dQTtI
MuAy6RD906I53mTmp3y/y/qHJdXdsXXXY/poNdxRJKpLkf2F6iXXbX/v6dz2aWnu
l06BUtaxEAXNpLcf744wSs1z
-----END CERTIFICATE-----
