Certificate:
    Data:
        Version: 3 (0x2)
        Serial Number: 14484236672110353131 (0xc902588333d2daeb)
    Signature Algorithm: sha256WithRSAEncryption
        Issuer: CN=test_ca
        Validity
            Not Before: Sep 27 16:51:31 2017 GMT
            Not After : Sep 25 16:51:31 2027 GMT
        Subject: CN=test_kafka
        Subject Public Key Info:
            Public Key Algorithm: rsaEncryption
                Public-Key: (2048 bit)
                Modulus:
                    00:d3:9b:4a:6a:c5:3b:31:08:74:2b:b1:72:52:44:
                    ba:5f:99:d6:dc:71:c2:0a:dd:6c:60:27:9f:c9:31:
                    6d:d3:31:d9:6d:5a:6d:90:79:9c:c0:5e:65:5b:88:
                    a6:59:d5:0f:79:16:44:14:c8:0d:66:cf:ea:fd:f3:
                    cf:1b:8d:be:b3:9d:48:c8:73:28:5d:20:e4:f8:b0:
                    e8:ed:8e:0f:87:28:5d:1e:c3:59:2b:7d:81:dd:ef:
                    80:4f:28:f3:e9:7a:18:b3:bd:25:df:71:a8:c5:fe:
                    c1:91:6e:c7:dc:0c:4e:75:e6:c7:69:79:76:ce:46:
                    e2:78:5e:6c:ad:43:6d:6c:ec:b8:b5:db:f3:2a:fa:
                    71:e4:a1:bc:e4:0c:e8:48:fe:5d:6b:34:9c:0d:f1:
                    16:4a:25:18:4f:a1:74:13:75:c4:bf:86:66:3b:f9:
                    b8:40:b5:28:c9:c8:a2:88:68:d3:99:52:3c:7a:1d:
                    27:ae:a0:8f:7f:a0:67:0c:c2:49:5c:b1:33:be:81:
                    a7:04:bf:9a:9b:19:90:88:63:b0:69:a0:fe:5c:41:
                    2c:3d:35:18:5c:a6:b6:3c:ab:04:96:32:e1:28:58:
                    31:a7:0a:9c:7d:78:a1:d1:79:db:d4:a3:65:2e:67:
                    89:eb:29:e4:19:f5:37:70:d6:7d:eb:e7:b2:21:4e:
                    e3:b5
                Exponent: 65537 (0x10001)
        X509v3 extensions:
            X509v3 Subject Alternative Name: 
                DNS:test_kafka, DNS:localhost
            X509v3 Basic Constraints: 
                CA:FALSE
            X509v3 Key Usage: 
                Digital Signature, Non Repudiation, Key Encipherment
            X509v3 Extended Key Usage: 
                TLS Web Server Authentication, TLS Web Client Authentication, Code Signing, E-mail Protection
            X509v3 Subject Key Identifier: 
                C7:48:88:A8:21:4A:C6:76:E5:52:51:EF:CB:FC:56:F8:62:87:68:62
            X509v3 Authority Key Identifier: 
                keyid:C5:5D:D6:32:A3:00:93:95:5A:F6:C1:18:73:32:30:E0:AE:74:24:EA

    Signature Algorithm: sha256WithRSAEncryption
         0a:84:b5:d6:7e:b0:4b:1e:bb:42:2f:ea:54:09:16:98:5c:c0:
         d7:75:44:24:f2:63:69:d5:cd:6b:06:31:25:ae:23:a0:9a:3c:
         4b:0f:09:2c:16:fa:4c:26:b5:9d:89:a9:fb:f4:f2:26:22:81:
         3e:a1:21:30:b9:29:19:b8:7d:08:23:dc:97:e4:f1:d8:08:0a:
         b8:e4:b1:ba:a7:8a:8a:81:62:c6:e9:54:0b:7a:c5:40:3b:87:
         91:c5:75:3a:0e:32:37:af:d4:36:f3:dd:fe:df:3f:7b:54:a6:
         e9:65:e6:ac:01:51:5b:75:32:9f:6d:f4:b1:db:44:2d:06:c8:
         ff:5c:ac:a7:7f:d0:ff:16:a2:be:74:1f:36:10:ff:db:b6:f2:
         30:07:e8:7a:9f:4e:b9:ae:43:78:a8:47:96:3a:ab:95:81:6a:
         4f:56:47:f3:bb:4b:e9:df:4c:34:20:53:5e:2d:b1:0c:82:a6:
         26:a2:f4:c1:cc:dd:2c:ba:74:f3:5a:cf:58:3f:39:f4:04:ff:
         2e:7c:74:69:cf:72:56:ce:10:33:f6:08:27:ee:0f:ae:10:9a:
         f9:79:31:38:0c:6c:94:c3:b0:cd:2b:4a:17:c5:f1:12:69:99:
         3d:d9:7c:b9:da:d3:21:f8:2d:b3:c1:ab:b4:92:0e:f6:0c:ae:
         24:ef:13:37:3b:93:4f:eb:32:e5:11:8e:07:8f:fb:41:92:13:
         5b:c4:cc:19:8e:81:6a:a4:53:65:17:c4:ba:2e:e5:29:67:17:
         bb:3b:f3:73:31:37:fc:b2:f5:38:20:a9:78:90:3a:ff:2c:e6:
         ba:43:6b:47:a4:bc:a2:c6:78:1d:60:92:f3:07:b9:2f:2d:a5:
         db:36:f6:17:f5:51:b7:12:8a:b4:93:af:3a:83:6d:d5:24:da:
         70:aa:5b:77:42:a0:1b:70:ea:e0:19:39:3b:8b:f6:08:13:34:
         d9:5d:2c:d7:47:fa:ad:15:7f:ee:2f:68:54:93:4e:55:28:ed:
         36:9b:56:41:a7:c0:83:f8:47:c2:a2:69:ef:40:1a:e4:07:b2:
         1e:80:2a:9d:c2:6b:7b:66:b9:db:e7:b6:14:32:2a:69:d7:e3:
         20:53:c8:90:12:2e:0b:ec:fd:aa:ed:39:53:bc:b2:11:3a:cd:
         55:53:23:74:07:be:27:42:fd:39:c4:71:b6:0f:3f:03:fe:02:
         12:55:9d:2b:d3:a9:ec:91:a8:2d:f4:41:d0:db:6c:f5:69:98:
         e3:ce:5e:3c:31:d9:4f:5f:bb:4b:14:4a:1f:53:24:61:91:54:
         e9:0a:1a:04:6c:28:d7:7f:bc:e4:48:c7:4b:3f:29:c4:ef:a5:
         4a:14:68:df:73:cf:83:42
-----BEGIN CERTIFICATE-----
MIIEWzCCAkOgAwIBAgIJAMkCWIMz0trrMA0GCSqGSIb3DQEBCwUAMBIxEDAOBgNV
BAMMB3Rlc3RfY2EwHhcNMTcwOTI3MTY1MTMxWhcNMjcwOTI1MTY1MTMxWjAVMRMw
EQYDVQQDDAp0ZXN0X2thZmthMIIBIjANBgkqhkiG9w0BAQEFAAOCAQ8AMIIBCgKC
AQEA05tKasU7MQh0K7FyUkS6X5nW3HHCCt1sYCefyTFt0zHZbVptkHmcwF5lW4im
WdUPeRZEFMgNZs/q/fPPG42+s51IyHMoXSDk+LDo7Y4PhyhdHsNZK32B3e+ATyjz
6XoYs70l33Goxf7BkW7H3AxOdebHaXl2zkbieF5srUNtbOy4tdvzKvpx5KG85Azo
SP5dazScDfEWSiUYT6F0E3XEv4ZmO/m4QLUoyciiiGjTmVI8eh0nrqCPf6BnDMJJ
XLEzvoGnBL+amxmQiGOwaaD+XEEsPTUYXKa2PKsEljLhKFgxpwqcfXih0Xnb1KNl
LmeJ6ynkGfU3cNZ96+eyIU7jtQIDAQABo4GwMIGtMCAGA1UdEQQZMBeCCnRlc3Rf
a2Fma2GCCWxvY2FsaG9zdDAJBgNVHRMEAjAAMAsGA1UdDwQEAwIF4DAxBgNVHSUE
KjAoBggrBgEFBQcDAQYIKwYBBQUHAwIGCCsGAQUFBwMDBggrBgEFBQcDBDAdBgNV
HQ4EFgQUx0iIqCFKxnblUlHvy/xW+GKHaGIwHwYDVR0jBBgwFoAUxV3WMqMAk5Va
9sEYczIw4K50JOowDQYJKoZIhvcNAQELBQADggIBAAqEtdZ+sEseu0Iv6lQJFphc
wNd1RCTyY2nVzWsGMSWuI6CaPEsPCSwW+kwmtZ2Jqfv08iYigT6hITC5KRm4fQgj
3Jfk8dgICrjksbqnioqBYsbpVAt6xUA7h5HFdToOMjev1Dbz3f7fP3tUpull5qwB
UVt1Mp9t9LHbRC0GyP9crKd/0P8Wor50HzYQ/9u28jAH6HqfTrmuQ3ioR5Y6q5WB
ak9WR/O7S+nfTDQgU14tsQyCpiai9MHM3Sy6dPNaz1g/OfQE/y58dGnPclbOEDP2
CCfuD64Qmvl5MTgMbJTDsM0rShfF8RJpmT3ZfLna0yH4LbPBq7SSDvYMriTvEzc7
k0/rMuURjgeP+0GSE1vEzBmOgWqkU2UXxLou5SlnF7s783MxN/yy9TggqXiQOv8s
5rpDa0ekvKLGeB1gkvMHuS8tpds29hf1UbcSirSTrzqDbdUk2nCqW3dCoBtw6uAZ
OTuL9ggTNNldLNdH+q0Vf+4vaFSTTlUo7TabVkGnwIP4R8Kiae9AGuQHsh6AKp3C
a3tmudvnthQyKmnX4yBTyJASLgvs/artOVO8shE6zVVTI3QHvidC/TnEcbYPPwP+
AhJVnSvTqeyRqC30QdDbbPVpmOPOXjwx2U9fu0sUSh9TJGGRVOkKGgRsKNd/vORI
x0s/KcTvpUoUaN9zz4NC
-----END CERTIFICATE-----
