Certificate:
    Data:
        Version: 3 (0x2)
        Serial Number: 14484236672110353129 (0xc902588333d2dae9)
    Signature Algorithm: sha256WithRSAEncryption
        Issuer: CN=test_ca
        Validity
            Not Before: Sep 27 16:51:31 2017 GMT
            Not After : Sep 25 16:51:31 2027 GMT
        Subject: CN=test_syslog_client_centos7
        Subject Public Key Info:
            Public Key Algorithm: rsaEncryption
                Public-Key: (2048 bit)
                Modulus:
                    00:d3:1f:17:4c:49:05:ef:17:b5:7d:73:b3:8c:34:
                    7c:22:e1:9f:aa:a8:6c:1b:14:29:56:a5:ce:00:75:
                    7b:c7:9d:c8:c7:8b:35:fc:f5:21:3c:6b:8f:ce:5d:
                    54:96:18:2d:50:8f:f5:da:e5:39:5f:a9:9b:45:99:
                    83:10:64:a1:7e:40:a7:05:05:21:d9:c2:7f:3a:9b:
                    af:89:3a:75:e9:b6:e6:c5:84:9c:af:02:e7:03:36:
                    75:f1:ee:29:a4:12:2c:b7:87:26:30:15:0b:bb:75:
                    36:f6:93:f2:fb:1c:b8:48:91:70:e9:59:cf:d9:4a:
                    f2:53:21:13:37:c2:95:8c:29:67:9c:68:85:65:60:
                    68:5d:fa:3d:70:a1:d6:9a:f8:66:37:df:27:0e:5e:
                    3a:9b:ae:90:61:00:5e:8d:0e:69:d1:d6:e3:01:34:
                    8c:3e:43:c3:fb:5f:2c:60:00:41:02:94:8c:0b:6e:
                    1e:bd:f8:48:82:f8:61:94:61:47:16:e6:ee:af:db:
                    da:31:c5:a1:63:53:4c:eb:f7:5b:4c:42:e1:96:86:
                    6c:11:37:6d:9e:d5:f6:27:d1:07:53:91:2b:3a:0f:
                    49:9b:0c:37:91:68:6c:cc:13:9d:1f:1d:5b:5e:78:
                    96:25:0c:e6:55:df:7a:40:be:6e:be:39:73:d6:6a:
                    48:29
                Exponent: 65537 (0x10001)
        X509v3 extensions:
            X509v3 Subject Alternative Name: 
                DNS:test_syslog_client_centos7, DNS:localhost
            X509v3 Basic Constraints: 
                CA:FALSE
            X509v3 Key Usage: 
                Digital Signature, Non Repudiation, Key Encipherment
            X509v3 Extended Key Usage: 
                TLS Web Server Authentication, TLS Web Client Authentication, Code Signing, E-mail Protection
            X509v3 Subject Key Identifier: 
                5A:A3:85:71:10:F2:90:E0:43:5A:A7:4E:06:4B:FA:34:A3:6E:CD:30
            X509v3 Authority Key Identifier: 
                keyid:C5:5D:D6:32:A3:00:93:95:5A:F6:C1:18:73:32:30:E0:AE:74:24:EA

    Signature Algorithm: sha256WithRSAEncryption
         5b:ad:5c:69:90:04:05:02:e1:f8:42:35:64:d7:24:29:f8:cb:
         e4:72:b3:c8:4c:fa:cd:86:ea:7a:ab:bb:24:53:7e:a9:b8:7c:
         98:8d:22:20:b6:1c:33:72:75:c1:73:9e:77:c4:20:88:d4:72:
         06:58:a4:78:b0:e4:82:99:42:ef:c4:94:47:eb:0a:cb:2a:08:
         25:2c:24:b2:7f:1e:70:f4:ba:65:d0:2b:7e:d5:12:f4:83:10:
         da:d3:29:35:92:76:cd:4d:e7:23:c5:53:55:d0:e4:56:2e:32:
         aa:7e:c6:f0:f8:d4:12:93:6f:0a:32:8a:15:a5:8c:8c:fc:b7:
         f7:d2:6a:b9:98:38:74:cd:ad:d8:41:bc:80:09:5a:35:5f:2f:
         0c:d5:e9:4d:c4:be:53:44:a0:44:b6:92:e4:3e:e9:c7:3c:15:
         bd:2c:19:0c:e9:ad:ec:ea:06:9c:13:51:54:e0:1d:b1:2d:63:
         fa:98:20:13:24:66:83:ba:24:2b:b0:0c:19:1c:8e:f5:6b:c9:
         4b:a9:cb:2c:29:33:04:9b:39:27:be:d0:68:65:2e:50:90:b9:
         9d:80:2c:6c:12:fa:d6:41:1d:1a:b9:b3:1c:98:f6:85:23:7e:
         82:5a:12:56:f1:12:44:51:38:50:30:92:44:39:ba:e5:04:d3:
         65:d2:8a:60:a4:15:61:1b:81:4d:ab:42:c8:cc:1e:3a:74:08:
         77:23:5a:f3:b5:7c:27:cd:2f:ab:c9:18:38:72:40:b8:f5:65:
         37:ca:b2:b2:0d:25:00:18:83:7e:ed:99:a7:70:4f:68:46:c6:
         c4:a5:93:c3:69:fc:15:db:84:1a:3f:7c:e1:ad:d7:f5:af:0c:
         a7:86:b0:86:74:8d:7e:c0:a3:fb:45:5a:cb:7f:8f:07:35:c1:
         da:c3:78:6d:a5:4e:a2:70:7b:98:50:c2:64:66:a4:37:34:91:
         53:1c:0d:49:e0:28:e4:7b:5f:d7:2b:9a:d5:4a:76:53:b5:9f:
         fa:2c:50:c9:8b:68:53:aa:82:dc:ac:1b:2e:c8:9b:b5:d6:41:
         17:3c:0d:cb:a1:15:57:58:1d:9f:dc:43:c9:59:54:4c:5f:7f:
         74:ea:18:4d:37:40:9f:de:fe:2f:ac:bc:9b:33:bf:bb:5c:c3:
         0a:4b:49:53:b2:da:2f:34:b7:ae:ce:c6:ae:ad:08:9f:37:46:
         f8:81:d8:32:24:7e:f9:05:a9:23:62:ae:f1:89:e4:07:42:90:
         2d:ac:9e:96:a3:84:17:e9:b2:23:df:cb:0e:21:1f:59:57:1a:
         be:a9:2e:86:b7:e7:33:5d:05:98:e3:70:2e:bb:62:e7:61:6e:
         17:a7:6d:15:6e:53:dd:6b
-----BEGIN CERTIFICATE-----
MIIEezCCAmOgAwIBAgIJAMkCWIMz0trpMA0GCSqGSIb3DQEBCwUAMBIxEDAOBgNV
BAMMB3Rlc3RfY2EwHhcNMTcwOTI3MTY1MTMxWhcNMjcwOTI1MTY1MTMxWjAlMSMw
IQYDVQQDDBp0ZXN0X3N5c2xvZ19jbGllbnRfY2VudG9zNzCCASIwDQYJKoZIhvcN
AQEBBQADggEPADCCAQoCggEBANMfF0xJBe8XtX1zs4w0fCLhn6qobBsUKValzgB1
e8edyMeLNfz1ITxrj85dVJYYLVCP9drlOV+pm0WZgxBkoX5ApwUFIdnCfzqbr4k6
dem25sWEnK8C5wM2dfHuKaQSLLeHJjAVC7t1NvaT8vscuEiRcOlZz9lK8lMhEzfC
lYwpZ5xohWVgaF36PXCh1pr4ZjffJw5eOpuukGEAXo0OadHW4wE0jD5Dw/tfLGAA
QQKUjAtuHr34SIL4YZRhRxbm7q/b2jHFoWNTTOv3W0xC4ZaGbBE3bZ7V9ifRB1OR
KzoPSZsMN5FobMwTnR8dW154liUM5lXfekC+br45c9ZqSCkCAwEAAaOBwDCBvTAw
BgNVHREEKTAnghp0ZXN0X3N5c2xvZ19jbGllbnRfY2VudG9zN4IJbG9jYWxob3N0
MAkGA1UdEwQCMAAwCwYDVR0PBAQDAgXgMDEGA1UdJQQqMCgGCCsGAQUFBwMBBggr
BgEFBQcDAgYIKwYBBQUHAwMGCCsGAQUFBwMEMB0GA1UdDgQWBBRao4VxEPKQ4ENa
p04GS/o0o27NMDAfBgNVHSMEGDAWgBTFXdYyowCTlVr2wRhzMjDgrnQk6jANBgkq
hkiG9w0BAQsFAAOCAgEAW61caZAEBQLh+EI1ZNckKfjL5HKzyEz6zYbqequ7JFN+
qbh8mI0iILYcM3J1wXOed8QgiNRyBlikeLDkgplC78SUR+sKyyoIJSwksn8ecPS6
ZdArftUS9IMQ2tMpNZJ2zU3nI8VTVdDkVi4yqn7G8PjUEpNvCjKKFaWMjPy399Jq
uZg4dM2t2EG8gAlaNV8vDNXpTcS+U0SgRLaS5D7pxzwVvSwZDOmt7OoGnBNRVOAd
sS1j+pggEyRmg7okK7AMGRyO9WvJS6nLLCkzBJs5J77QaGUuUJC5nYAsbBL61kEd
GrmzHJj2hSN+gloSVvESRFE4UDCSRDm65QTTZdKKYKQVYRuBTatCyMweOnQIdyNa
87V8J80vq8kYOHJAuPVlN8qysg0lABiDfu2Zp3BPaEbGxKWTw2n8FduEGj984a3X
9a8Mp4awhnSNfsCj+0Vay3+PBzXB2sN4baVOonB7mFDCZGakNzSRUxwNSeAo5Htf
1yua1Up2U7Wf+ixQyYtoU6qC3KwbLsibtdZBFzwNy6EVV1gdn9xDyVlUTF9/dOoY
TTdAn97+L6y8mzO/u1zDCktJU7LaLzS3rs7Grq0InzdG+IHYMiR++QWpI2Ku8Ynk
B0KQLayelqOEF+myI9/LDiEfWVcavqkuhrfnM10FmONwLrti52FuF6dtFW5T3Ws=
-----END CERTIFICATE-----
