Certificate:
    Data:
        Version: 3 (0x2)
        Serial Number:
            0e:ec:e5:3e:fd:a3:f9:05:c9:19:ca:b4:cd:ef:90:dd:e3:4f:13:27
        Signature Algorithm: sha256WithRSAEncryption
        Issuer: CN=test-ca
        Validity
            Not Before: Aug 19 15:27:41 2022 GMT
            Not After : Aug 16 15:27:41 2032 GMT
        Subject: CN=test-syslog-client-ubuntu1804
        Subject Public Key Info:
            Public Key Algorithm: rsaEncryption
                RSA Public-Key: (2048 bit)
                Modulus:
                    00:d3:54:d5:30:e3:55:78:4c:ce:38:7d:f6:80:b4:
                    fa:e2:b7:3d:28:d6:d3:c9:79:92:18:f3:cf:b2:d7:
                    c5:33:3b:62:03:a4:6a:6e:9b:11:8f:f9:1a:96:f9:
                    be:e7:2a:09:9c:75:37:fa:68:1c:bc:ed:7e:8e:87:
                    5d:be:78:14:9a:85:c0:1f:38:99:19:ea:7b:32:16:
                    b4:7d:42:51:48:3d:9b:d7:8a:5b:34:fa:57:01:81:
                    78:90:ba:11:35:b3:bd:1a:1e:58:63:ab:3e:ff:19:
                    d5:aa:3c:28:62:7d:6f:eb:25:91:cd:4c:b0:d3:6f:
                    f3:c6:3b:04:64:ff:cd:df:0a:6d:59:b1:e0:5b:00:
                    a8:98:bd:ff:32:5f:10:38:7c:07:3a:4e:b9:82:3d:
                    83:09:f2:5b:79:96:13:50:0d:27:51:49:95:79:ca:
                    4d:df:e2:20:56:0b:91:54:b2:d1:91:ca:bc:2e:cd:
                    d4:5d:73:86:c8:00:91:4f:3c:76:6a:31:c0:fd:13:
                    4d:0f:17:09:5b:60:27:6e:73:1b:6e:83:d5:53:90:
                    d5:05:d9:e5:c6:be:2f:46:9e:6f:6b:28:02:59:0a:
                    3f:98:54:4c:5a:8c:70:21:e9:c5:fd:f4:2f:c8:67:
                    54:7e:cf:44:bf:1d:75:9c:ae:21:3b:6b:b0:ec:d3:
                    6c:77
                Exponent: 65537 (0x10001)
        X509v3 extensions:
            X509v3 Subject Alternative Name: 
                DNS:test-syslog-client-ubuntu1804, DNS:localhost
            X509v3 Basic Constraints: 
                CA:FALSE
            X509v3 Key Usage: 
                Digital Signature, Non Repudiation, Key Encipherment
            X509v3 Extended Key Usage: 
                TLS Web Server Authentication, TLS Web Client Authentication, Code Signing, E-mail Protection
            X509v3 Subject Key Identifier: 
                7C:3A:B1:7A:9F:8E:F9:B7:20:8C:9D:28:EF:63:A0:9B:A4:FF:76:C5
            X509v3 Authority Key Identifier: 
                keyid:7E:23:BF:98:68:F1:9F:FB:80:13:D7:52:42:49:E9:1C:E1:95:07:79

    Signature Algorithm: sha256WithRSAEncryption
         7b:5a:7e:7b:b8:bd:08:c9:a5:3a:91:94:fb:6d:93:7d:16:c0:
         46:cc:ad:70:63:48:a9:de:b4:4d:64:07:d1:2b:9e:cd:94:59:
         7a:7c:e8:76:5b:26:eb:15:e2:2a:00:86:13:4b:2a:10:ed:ec:
         85:a0:8c:ea:1c:a1:cf:d8:fe:ea:2a:ed:67:b1:5a:cd:f9:8f:
         4f:6f:2a:d1:d9:bb:be:42:9b:26:38:72:03:c1:8f:62:c8:0e:
         06:71:3f:5d:9d:ad:43:ca:a5:2c:63:0d:95:72:cf:52:09:54:
         7d:5d:e3:d3:9a:91:89:1d:e9:9c:07:06:77:54:29:f6:af:da:
         ef:5d:6b:8b:59:06:27:6a:d3:a4:a3:95:1c:b0:2f:e7:09:66:
         c7:6e:1f:c4:19:5b:c5:9f:7a:4e:c4:4c:87:8c:0c:45:31:a0:
         2b:4a:f9:27:b4:09:eb:e6:04:df:47:c0:74:0d:89:05:d1:53:
         5e:81:68:3c:9f:68:98:1b:27:10:a7:80:26:57:97:51:29:df:
         2b:8d:a1:7c:3a:ae:f0:9c:af:69:fb:3b:db:01:63:a9:5e:b1:
         c8:4c:59:16:67:2a:11:81:dd:50:39:93:ff:86:84:7e:06:3a:
         e4:de:77:cb:21:f4:68:f7:7a:d0:6d:7b:fc:fd:57:59:65:57:
         88:a6:5f:ee:ff:56:ed:40:47:81:ed:96:59:1c:5e:c8:fc:77:
         b9:d6:58:79:73:fb:7b:68:0f:ea:28:b1:46:a4:dc:ba:ab:8d:
         c1:e0:f8:bb:a5:21:68:85:ef:65:e4:b7:74:0b:40:b1:4d:83:
         73:b4:ca:81:9a:40:23:95:49:5e:6b:8d:9c:5a:97:bb:69:44:
         f4:ce:e3:be:8e:ec:99:4a:1b:de:9e:c3:82:1d:a9:42:00:3f:
         b1:6b:f1:9b:1c:1e:8e:4a:12:b0:0d:e3:97:05:f6:5d:a6:bf:
         cd:e5:9a:9c:42:96:d5:62:b2:bb:5d:f9:55:43:c5:bb:5c:12:
         bf:db:30:70:73:74:7d:a6:cf:89:94:1d:2d:04:c7:0d:76:16:
         62:6c:a8:e8:bc:92:90:0c:2c:93:b8:06:d0:4a:df:d8:60:de:
         db:54:17:8a:61:d7:52:81:31:ae:d4:12:f1:35:03:92:5a:32:
         ba:aa:42:d3:a6:d4:f5:c4:86:13:38:9a:f3:ab:69:f0:d3:01:
         8e:0d:25:8c:9f:94:54:8e:95:d2:64:31:bf:9c:24:2c:3f:7e:
         bd:2b:11:7b:56:40:9b:f9:a5:b7:b9:1f:ce:87:95:82:7e:f1:
         aa:55:b9:5f:5e:75:b4:11:7a:33:b0:98:8e:cc:72:b1:43:14:
         4b:fc:ee:1d:48:03:79:5d
-----BEGIN CERTIFICATE-----
MIIEjDCCAnSgAwIBAgIUDuzlPv2j+QXJGcq0ze+Q3eNPEycwDQYJKoZIhvcNAQEL
BQAwEjEQMA4GA1UEAwwHdGVzdC1jYTAeFw0yMjA4MTkxNTI3NDFaFw0zMjA4MTYx
NTI3NDFaMCgxJjAkBgNVBAMMHXRlc3Qtc3lzbG9nLWNsaWVudC11YnVudHUxODA0
MIIBIjANBgkqhkiG9w0BAQEFAAOCAQ8AMIIBCgKCAQEA01TVMONVeEzOOH32gLT6
4rc9KNbTyXmSGPPPstfFMztiA6RqbpsRj/kalvm+5yoJnHU3+mgcvO1+joddvngU
moXAHziZGep7Mha0fUJRSD2b14pbNPpXAYF4kLoRNbO9Gh5YY6s+/xnVqjwoYn1v
6yWRzUyw02/zxjsEZP/N3wptWbHgWwComL3/Ml8QOHwHOk65gj2DCfJbeZYTUA0n
UUmVecpN3+IgVguRVLLRkcq8Ls3UXXOGyACRTzx2ajHA/RNNDxcJW2AnbnMbboPV
U5DVBdnlxr4vRp5vaygCWQo/mFRMWoxwIenF/fQvyGdUfs9Evx11nK4hO2uw7NNs
dwIDAQABo4HDMIHAMDMGA1UdEQQsMCqCHXRlc3Qtc3lzbG9nLWNsaWVudC11YnVu
dHUxODA0gglsb2NhbGhvc3QwCQYDVR0TBAIwADALBgNVHQ8EBAMCBeAwMQYDVR0l
BCowKAYIKwYBBQUHAwEGCCsGAQUFBwMCBggrBgEFBQcDAwYIKwYBBQUHAwQwHQYD
VR0OBBYEFHw6sXqfjvm3IIydKO9joJuk/3bFMB8GA1UdIwQYMBaAFH4jv5ho8Z/7
gBPXUkJJ6RzhlQd5MA0GCSqGSIb3DQEBCwUAA4ICAQB7Wn57uL0IyaU6kZT7bZN9
FsBGzK1wY0ip3rRNZAfRK57NlFl6fOh2WybrFeIqAIYTSyoQ7eyFoIzqHKHP2P7q
Ku1nsVrN+Y9PbyrR2bu+QpsmOHIDwY9iyA4GcT9dna1DyqUsYw2Vcs9SCVR9XePT
mpGJHemcBwZ3VCn2r9rvXWuLWQYnatOko5UcsC/nCWbHbh/EGVvFn3pOxEyHjAxF
MaArSvkntAnr5gTfR8B0DYkF0VNegWg8n2iYGycQp4AmV5dRKd8rjaF8Oq7wnK9p
+zvbAWOpXrHITFkWZyoRgd1QOZP/hoR+Bjrk3nfLIfRo93rQbXv8/VdZZVeIpl/u
/1btQEeB7ZZZHF7I/He51lh5c/t7aA/qKLFGpNy6q43B4Pi7pSFohe9l5Ld0C0Cx
TYNztMqBmkAjlUlea42cWpe7aUT0zuO+juyZShvensOCHalCAD+xa/GbHB6OShKw
DeOXBfZdpr/N5ZqcQpbVYrK7XflVQ8W7XBK/2zBwc3R9ps+JlB0tBMcNdhZibKjo
vJKQDCyTuAbQSt/YYN7bVBeKYddSgTGu1BLxNQOSWjK6qkLTptT1xIYTOJrzq2nw
0wGODSWMn5RUjpXSZDG/nCQsP369KxF7VkCb+aW3uR/Oh5WCfvGqVblfXnW0EXoz
sJiOzHKxQxRL/O4dSAN5XQ==
-----END CERTIFICATE-----
