Certificate:
    Data:
        Version: 3 (0x2)
        Serial Number:
            61:32:83:18:b7:6c:37:85:dd:3b:b6:08:29:62:b6:3e:84:07:a7:6d
        Signature Algorithm: sha256WithRSAEncryption
        Issuer: CN=test_ca
        Validity
            Not Before: Jun 11 19:45:01 2021 GMT
            Not After : Jun  9 19:45:01 2031 GMT
        Subject: CN=test_syslog_client_ubuntu1804
        Subject Public Key Info:
            Public Key Algorithm: rsaEncryption
                RSA Public-Key: (2048 bit)
                Modulus:
                    00:b9:43:5f:af:c6:87:1c:dd:55:58:44:30:b4:0c:
                    a9:d1:69:76:32:76:28:4d:96:07:97:ce:50:5d:59:
                    bf:fe:95:e3:ae:e1:ee:8d:8a:cd:72:45:3d:bf:33:
                    2a:a7:ba:60:68:d2:c7:bb:af:58:25:d1:29:6d:7c:
                    1b:85:30:1a:65:b0:92:7e:7d:83:dd:d7:99:70:77:
                    ac:08:ed:94:68:42:a0:89:cc:c3:cd:2b:1b:3d:10:
                    93:e2:a4:4f:16:f8:29:d6:2b:7a:92:80:86:f1:19:
                    32:2b:6c:38:91:e2:8b:b7:fb:ba:ef:7b:c0:9f:9a:
                    ec:e0:4c:3f:b6:06:53:a5:4c:5a:0c:22:da:c8:a1:
                    bc:6e:e5:26:d8:2e:34:05:f0:5d:6e:9d:4a:b7:f6:
                    f0:58:ef:2c:a3:8f:57:8a:33:e8:09:a5:2c:32:18:
                    03:e2:d3:3d:f7:3a:73:98:6c:5a:e3:e6:cc:a1:65:
                    97:74:e2:11:1d:b6:58:c6:cb:5b:18:7d:1a:1d:bb:
                    bb:84:06:28:2a:1f:94:d0:88:10:36:29:d5:a4:7e:
                    f3:06:2f:f4:ac:fd:0a:20:bb:83:63:e1:fa:f2:60:
                    24:20:8e:3d:08:b9:ce:4a:c9:fc:ee:a5:19:1f:ab:
                    79:b6:79:24:1e:90:72:37:24:24:9b:f1:38:8e:1d:
                    ff:b1
                Exponent: 65537 (0x10001)
        X509v3 extensions:
            X509v3 Subject Alternative Name: 
                DNS:test_syslog_client_ubuntu1804, DNS:localhost
            X509v3 Basic Constraints: 
                CA:FALSE
            X509v3 Key Usage: 
                Digital Signature, Non Repudiation, Key Encipherment
            X509v3 Extended Key Usage: 
                TLS Web Server Authentication, TLS Web Client Authentication, Code Signing, E-mail Protection
            X509v3 Subject Key Identifier: 
                09:54:C5:ED:C2:7F:90:E5:B0:E9:F9:7E:A0:75:5B:D4:CE:9C:92:F5
            X509v3 Authority Key Identifier: 
                keyid:9D:AC:EC:CC:91:0F:6D:29:B6:0F:D2:1E:45:69:83:29:2E:49:15:1A

    Signature Algorithm: sha256WithRSAEncryption
         71:6e:e4:a9:89:49:cb:9f:ea:b0:9e:c1:0f:ea:01:10:ff:d9:
         41:b4:53:4d:82:19:19:a0:d8:a2:db:08:4a:5b:19:25:65:3c:
         f6:b7:1d:51:b7:8b:7e:4e:89:f2:ce:73:e8:3f:21:47:10:41:
         03:41:52:7f:b1:d7:76:43:66:de:b1:c5:17:cd:06:d6:8f:c7:
         19:85:e8:aa:d3:5d:04:e7:50:85:0d:6c:ae:23:54:42:0a:36:
         e3:de:e3:d1:a7:3c:07:e4:3a:3f:27:8d:a9:27:9a:cd:a7:80:
         d4:f7:30:72:4e:a7:6d:e4:0d:d1:f5:f0:4c:86:27:59:d1:72:
         27:6e:ce:cc:d6:a9:5d:48:a0:9a:84:49:2c:a0:cb:a6:ee:89:
         1d:56:b1:6f:82:39:cb:0f:fb:7d:b8:9b:ac:4e:40:03:c8:61:
         fe:7a:00:e7:4b:4d:aa:90:d7:7f:af:31:f5:3b:9e:f2:8a:c6:
         3b:dd:a5:c5:23:f8:0d:af:5e:4f:88:93:a1:0f:8d:4f:d1:b9:
         19:a2:2b:50:a9:15:5b:29:00:d0:a1:51:ba:2e:5a:ef:55:9a:
         ae:d6:d7:a2:1f:ec:fb:c1:f1:4e:34:8a:37:d1:6f:95:f7:66:
         4e:85:bc:4e:f6:f7:48:9b:27:9f:83:ba:d0:54:5a:74:2b:f4:
         7c:14:ad:b2:43:2f:ef:73:e1:1d:77:71:7f:05:28:aa:e2:20:
         70:ee:e9:f4:25:c3:53:f2:ad:2c:25:0d:fb:17:19:0f:82:a2:
         0a:93:31:3d:ff:2d:f1:eb:f2:7a:56:a0:6b:52:a9:98:88:ca:
         d9:b8:f9:d7:67:47:54:43:3f:08:31:4e:fe:58:66:83:5c:b6:
         c2:f9:c9:35:9c:9f:93:68:56:0a:53:ee:1f:03:12:d3:0b:0e:
         ea:1e:6e:15:2b:3e:8c:e7:2b:14:a5:7c:a8:1d:f4:b9:28:5e:
         d7:02:c6:c7:f6:4d:94:3c:e7:84:11:55:3d:86:a2:93:08:9b:
         93:a9:9e:4a:47:4e:19:a2:d8:d1:a9:4f:f2:c0:d9:5a:15:19:
         f2:81:43:72:d9:9b:50:a6:46:c1:37:48:7a:b8:37:28:09:94:
         bd:b8:de:2e:60:36:0d:10:29:45:5b:7c:40:b7:ce:6e:99:4f:
         b8:05:d7:f8:74:69:ff:32:d7:4d:7a:5a:f9:31:2e:ec:8e:ff:
         d3:14:e2:2c:64:b3:04:53:ef:9a:59:62:af:18:64:25:9b:09:
         7d:45:b9:28:78:de:8c:d5:61:0d:fa:b2:6c:9b:a0:7f:d6:16:
         14:02:95:34:14:b6:47:55:27:87:de:3d:71:ca:88:6a:43:8a:
         9a:92:19:12:10:47:a5:36
-----BEGIN CERTIFICATE-----
MIIEjDCCAnSgAwIBAgIUYTKDGLdsN4XdO7YIKWK2PoQHp20wDQYJKoZIhvcNAQEL
BQAwEjEQMA4GA1UEAwwHdGVzdF9jYTAeFw0yMTA2MTExOTQ1MDFaFw0zMTA2MDkx
OTQ1MDFaMCgxJjAkBgNVBAMMHXRlc3Rfc3lzbG9nX2NsaWVudF91YnVudHUxODA0
MIIBIjANBgkqhkiG9w0BAQEFAAOCAQ8AMIIBCgKCAQEAuUNfr8aHHN1VWEQwtAyp
0Wl2MnYoTZYHl85QXVm//pXjruHujYrNckU9vzMqp7pgaNLHu69YJdEpbXwbhTAa
ZbCSfn2D3deZcHesCO2UaEKgiczDzSsbPRCT4qRPFvgp1it6koCG8RkyK2w4keKL
t/u673vAn5rs4Ew/tgZTpUxaDCLayKG8buUm2C40BfBdbp1Kt/bwWO8so49XijPo
CaUsMhgD4tM99zpzmGxa4+bMoWWXdOIRHbZYxstbGH0aHbu7hAYoKh+U0IgQNinV
pH7zBi/0rP0KILuDY+H68mAkII49CLnOSsn87qUZH6t5tnkkHpByNyQkm/E4jh3/
sQIDAQABo4HDMIHAMDMGA1UdEQQsMCqCHXRlc3Rfc3lzbG9nX2NsaWVudF91YnVu
dHUxODA0gglsb2NhbGhvc3QwCQYDVR0TBAIwADALBgNVHQ8EBAMCBeAwMQYDVR0l
BCowKAYIKwYBBQUHAwEGCCsGAQUFBwMCBggrBgEFBQcDAwYIKwYBBQUHAwQwHQYD
VR0OBBYEFAlUxe3Cf5DlsOn5fqB1W9TOnJL1MB8GA1UdIwQYMBaAFJ2s7MyRD20p
tg/SHkVpgykuSRUaMA0GCSqGSIb3DQEBCwUAA4ICAQBxbuSpiUnLn+qwnsEP6gEQ
/9lBtFNNghkZoNii2whKWxklZTz2tx1Rt4t+TonyznPoPyFHEEEDQVJ/sdd2Q2be
scUXzQbWj8cZheiq010E51CFDWyuI1RCCjbj3uPRpzwH5Do/J42pJ5rNp4DU9zBy
Tqdt5A3R9fBMhidZ0XInbs7M1qldSKCahEksoMum7okdVrFvgjnLD/t9uJusTkAD
yGH+egDnS02qkNd/rzH1O57yisY73aXFI/gNr15PiJOhD41P0bkZoitQqRVbKQDQ
oVG6LlrvVZqu1teiH+z7wfFONIo30W+V92ZOhbxO9vdImyefg7rQVFp0K/R8FK2y
Qy/vc+Edd3F/BSiq4iBw7un0JcNT8q0sJQ37FxkPgqIKkzE9/y3x6/J6VqBrUqmY
iMrZuPnXZ0dUQz8IMU7+WGaDXLbC+ck1nJ+TaFYKU+4fAxLTCw7qHm4VKz6M5ysU
pXyoHfS5KF7XAsbH9k2UPOeEEVU9hqKTCJuTqZ5KR04ZotjRqU/ywNlaFRnygUNy
2ZtQpkbBN0h6uDcoCZS9uN4uYDYNEClFW3xAt85umU+4Bdf4dGn/MtdNelr5MS7s
jv/TFOIsZLMEU++aWWKvGGQlmwl9RbkoeN6M1WEN+rJsm6B/1hYUApU0FLZHVSeH
3j1xyohqQ4qakhkSEEelNg==
-----END CERTIFICATE-----
