Certificate:
    Data:
        Version: 3 (0x2)
        Serial Number:
            61:32:83:18:b7:6c:37:85:dd:3b:b6:08:29:62:b6:3e:84:07:a7:6c
        Signature Algorithm: sha256WithRSAEncryption
        Issuer: CN=test_ca
        Validity
            Not Before: Jun 11 19:45:01 2021 GMT
            Not After : Jun  9 19:45:01 2031 GMT
        Subject: CN=test_syslog_client_centos7
        Subject Public Key Info:
            Public Key Algorithm: rsaEncryption
                RSA Public-Key: (2048 bit)
                Modulus:
                    00:e3:f2:92:0c:0b:d9:16:8f:24:64:1a:0f:aa:ad:
                    ca:71:cf:a1:45:54:c6:04:5f:f5:0e:c8:d1:97:11:
                    27:6c:9f:ab:6e:c2:7c:ea:6e:37:cd:15:1d:78:91:
                    5c:0d:b8:e3:b0:da:eb:59:8d:bd:70:09:69:6f:c5:
                    89:70:27:6b:d6:04:e5:25:d3:3f:48:85:46:8c:be:
                    49:02:9d:a7:a7:7f:b8:88:b0:0a:a3:35:95:ce:36:
                    28:23:3f:5a:02:9c:47:ff:cd:18:b3:9a:f4:61:d2:
                    2e:40:37:4e:33:db:00:54:a3:89:5e:da:71:26:7d:
                    68:fd:18:eb:34:5e:4e:6b:d3:aa:02:92:f0:28:80:
                    e1:2f:ef:a7:31:b2:6e:51:2f:1b:60:f8:6f:06:19:
                    8a:3c:70:92:01:4c:34:58:30:a0:9e:f8:44:03:63:
                    1e:d5:3b:1a:9b:c0:6e:25:98:8a:78:75:a3:af:c8:
                    9b:92:45:8f:44:34:a1:3f:0f:96:92:11:0c:83:95:
                    f9:b1:ae:94:56:d0:8d:f5:03:95:bb:6a:b4:14:5b:
                    aa:28:89:d4:bd:8e:20:13:13:15:63:ec:2a:40:b2:
                    57:07:16:2d:14:c3:62:9d:0b:78:66:4f:27:cd:10:
                    4c:e4:5b:71:09:07:4f:14:d5:35:25:d6:c0:d7:5e:
                    66:37
                Exponent: 65537 (0x10001)
        X509v3 extensions:
            X509v3 Subject Alternative Name: 
                DNS:test_syslog_client_centos7, DNS:localhost
            X509v3 Basic Constraints: 
                CA:FALSE
            X509v3 Key Usage: 
                Digital Signature, Non Repudiation, Key Encipherment
            X509v3 Extended Key Usage: 
                TLS Web Server Authentication, TLS Web Client Authentication, Code Signing, E-mail Protection
            X509v3 Subject Key Identifier: 
                D9:D1:0F:B9:4D:0F:0E:8A:64:35:C7:D5:B2:CB:16:BE:82:70:28:5F
            X509v3 Authority Key Identifier: 
                keyid:9D:AC:EC:CC:91:0F:6D:29:B6:0F:D2:1E:45:69:83:29:2E:49:15:1A

    Signature Algorithm: sha256WithRSAEncryption
         cd:0c:14:fb:2a:e3:92:5c:ba:75:f3:8a:44:af:85:d8:78:ff:
         66:a1:63:d9:27:50:7b:b0:12:3c:14:61:e8:8f:b3:ab:b4:70:
         9a:7e:7b:fa:4b:f4:74:03:18:84:5b:0d:c9:fd:6c:58:a2:ca:
         74:80:41:6d:7b:ed:48:d9:d6:de:5b:07:aa:08:04:61:4b:5c:
         93:dc:58:69:55:56:c0:83:18:6b:03:e6:e7:15:02:7a:26:52:
         2a:95:bf:e6:02:bc:bc:87:b7:60:e9:03:d7:dd:cb:54:b0:f4:
         4f:41:c1:a4:e9:6c:bf:3c:35:5a:45:59:74:02:20:02:33:b0:
         e9:86:f2:66:4e:d6:d4:f1:39:d0:bc:4a:a8:a7:c2:8f:84:9a:
         7f:dd:b1:22:6a:e4:ea:34:61:63:af:c4:17:8e:ee:ce:ef:67:
         51:d2:dc:1c:4a:0a:ce:0b:c6:2c:3f:f6:e1:3b:b3:74:04:ed:
         f5:26:03:c8:76:5c:95:30:b3:e2:6c:98:f3:d2:9f:8a:42:94:
         b9:f9:2b:67:d2:73:5b:1e:4d:51:89:2d:92:f0:79:dc:34:ae:
         7b:31:9d:7b:29:48:81:15:22:ec:b6:a3:ce:cc:47:ae:54:de:
         6e:9e:e5:46:9d:85:d5:d6:00:40:ad:6c:3a:eb:18:d9:d5:25:
         f5:78:af:96:bd:57:83:63:b4:b4:1a:92:c8:88:53:88:be:fb:
         68:90:e4:51:85:f3:cc:d2:7b:0f:2e:fb:d3:e7:3a:fa:b7:28:
         f8:01:87:f8:b9:98:c7:96:05:83:82:ee:bc:36:5d:74:d8:bb:
         69:ab:f8:ef:88:0d:e6:83:7a:8c:9a:34:c8:fc:83:93:9b:a6:
         c9:69:9c:16:ac:81:43:6d:13:45:a0:82:e4:50:6a:00:0c:af:
         99:6f:0e:6c:cb:f3:64:65:6d:c3:3a:59:f8:76:6d:03:84:c0:
         62:c7:58:d8:2c:f2:b8:d0:96:79:e3:6f:a5:66:e8:6c:6d:7a:
         6e:60:cb:3e:c9:6a:ea:1c:2a:45:27:18:4c:98:12:77:52:f6:
         8e:89:ff:9d:3f:53:77:2f:51:d5:2d:96:f7:be:a2:b3:b4:44:
         52:e3:55:35:02:c7:98:ba:1f:cf:6c:95:d8:ef:e4:93:54:1b:
         0a:59:c5:30:a1:ae:48:8c:6f:3a:38:5b:f5:23:83:06:2d:9d:
         95:12:c8:70:b9:d2:94:68:e7:2a:c9:44:d7:a4:d0:74:23:e3:
         5e:7c:97:d2:ce:89:28:87:ab:bf:04:7f:fa:85:d4:0c:1f:84:
         ea:a2:3a:db:f9:31:b3:5f:ff:df:11:1e:86:fe:f0:1a:fa:76:
         02:51:f2:a2:c6:5d:e5:60
-----BEGIN CERTIFICATE-----
MIIEhjCCAm6gAwIBAgIUYTKDGLdsN4XdO7YIKWK2PoQHp2wwDQYJKoZIhvcNAQEL
BQAwEjEQMA4GA1UEAwwHdGVzdF9jYTAeFw0yMTA2MTExOTQ1MDFaFw0zMTA2MDkx
OTQ1MDFaMCUxIzAhBgNVBAMMGnRlc3Rfc3lzbG9nX2NsaWVudF9jZW50b3M3MIIB
IjANBgkqhkiG9w0BAQEFAAOCAQ8AMIIBCgKCAQEA4/KSDAvZFo8kZBoPqq3Kcc+h
RVTGBF/1DsjRlxEnbJ+rbsJ86m43zRUdeJFcDbjjsNrrWY29cAlpb8WJcCdr1gTl
JdM/SIVGjL5JAp2np3+4iLAKozWVzjYoIz9aApxH/80Ys5r0YdIuQDdOM9sAVKOJ
XtpxJn1o/RjrNF5Oa9OqApLwKIDhL++nMbJuUS8bYPhvBhmKPHCSAUw0WDCgnvhE
A2Me1Tsam8BuJZiKeHWjr8ibkkWPRDShPw+WkhEMg5X5sa6UVtCN9QOVu2q0FFuq
KInUvY4gExMVY+wqQLJXBxYtFMNinQt4Zk8nzRBM5FtxCQdPFNU1JdbA115mNwID
AQABo4HAMIG9MDAGA1UdEQQpMCeCGnRlc3Rfc3lzbG9nX2NsaWVudF9jZW50b3M3
gglsb2NhbGhvc3QwCQYDVR0TBAIwADALBgNVHQ8EBAMCBeAwMQYDVR0lBCowKAYI
KwYBBQUHAwEGCCsGAQUFBwMCBggrBgEFBQcDAwYIKwYBBQUHAwQwHQYDVR0OBBYE
FNnRD7lNDw6KZDXH1bLLFr6CcChfMB8GA1UdIwQYMBaAFJ2s7MyRD20ptg/SHkVp
gykuSRUaMA0GCSqGSIb3DQEBCwUAA4ICAQDNDBT7KuOSXLp184pEr4XYeP9moWPZ
J1B7sBI8FGHoj7OrtHCafnv6S/R0AxiEWw3J/WxYosp0gEFte+1I2dbeWweqCARh
S1yT3FhpVVbAgxhrA+bnFQJ6JlIqlb/mAry8h7dg6QPX3ctUsPRPQcGk6Wy/PDVa
RVl0AiACM7DphvJmTtbU8TnQvEqop8KPhJp/3bEiauTqNGFjr8QXju7O72dR0twc
SgrOC8YsP/bhO7N0BO31JgPIdlyVMLPibJjz0p+KQpS5+Stn0nNbHk1RiS2S8Hnc
NK57MZ17KUiBFSLstqPOzEeuVN5unuVGnYXV1gBArWw66xjZ1SX1eK+WvVeDY7S0
GpLIiFOIvvtokORRhfPM0nsPLvvT5zr6tyj4AYf4uZjHlgWDgu68Nl102Ltpq/jv
iA3mg3qMmjTI/IOTm6bJaZwWrIFDbRNFoILkUGoADK+Zbw5sy/NkZW3DOln4dm0D
hMBix1jYLPK40JZ542+lZuhsbXpuYMs+yWrqHCpFJxhMmBJ3UvaOif+dP1N3L1HV
LZb3vqKztERS41U1AseYuh/PbJXY7+STVBsKWcUwoa5IjG86OFv1I4MGLZ2VEshw
udKUaOcqyUTXpNB0I+NefJfSzokoh6u/BH/6hdQMH4Tqojrb+TGzX//fER6G/vAa
+nYCUfKixl3lYA==
-----END CERTIFICATE-----
