Certificate:
    Data:
        Version: 3 (0x2)
        Serial Number:
            0e:ec:e5:3e:fd:a3:f9:05:c9:19:ca:b4:cd:ef:90:dd:e3:4f:13:23
        Signature Algorithm: sha256WithRSAEncryption
        Issuer: CN=test-ca
        Validity
            Not Before: Aug 19 15:27:41 2022 GMT
            Not After : Aug 14 15:27:41 2042 GMT
        Subject: CN=test-ca
        Subject Public Key Info:
            Public Key Algorithm: rsaEncryption
                RSA Public-Key: (4096 bit)
                Modulus:
                    00:b9:3c:9b:ea:6b:5b:d6:83:ea:87:94:e0:b9:3f:
                    b0:98:d5:9a:2a:d1:5a:55:68:30:79:4c:80:03:09:
                    2b:27:48:8c:22:38:c9:ab:f6:b8:be:8b:fa:ba:1a:
                    18:ae:fd:cb:4b:1b:89:0d:a0:4e:bf:aa:06:82:97:
                    95:2b:5e:b6:91:7e:f5:2a:c9:68:eb:49:21:54:ea:
                    0a:e0:4f:4c:34:1a:1d:9c:a6:ff:fb:47:7a:3c:0c:
                    6a:e9:01:16:cf:c7:6f:51:7d:84:dd:5f:22:7b:43:
                    ca:d4:65:c4:4f:b0:d5:ed:c1:8f:fc:84:ae:75:17:
                    35:fd:b5:30:de:fa:db:17:d4:96:dd:fc:c2:8b:ab:
                    5b:48:a8:78:14:71:49:8b:7a:ff:db:41:e5:70:47:
                    18:c6:31:03:ed:53:c4:dc:db:d4:c8:8d:c9:5f:56:
                    17:73:5d:f2:af:14:ef:82:57:ba:0f:97:0e:79:d1:
                    b2:5c:39:89:6d:5b:a8:42:97:aa:02:08:e3:19:44:
                    e0:3c:4c:59:bc:d8:3c:33:28:09:8e:af:62:07:5f:
                    cc:2e:00:91:47:e0:d5:3c:87:9f:ce:63:4d:cf:7c:
                    0c:cf:d3:64:78:39:49:56:84:c4:d6:97:51:bd:32:
                    39:cb:64:bf:14:5c:8b:be:58:51:49:52:a0:3f:4b:
                    d4:b2:cf:9f:79:c9:b5:64:2a:ea:62:a2:8c:81:ce:
                    29:15:8c:8c:d3:fc:8f:8c:03:c3:08:bd:bb:08:29:
                    d6:55:5a:0f:2e:51:e5:bb:17:92:4c:27:c7:64:10:
                    3b:15:7f:15:6a:33:12:ed:3d:5f:3c:f8:7e:cf:68:
                    fa:a9:24:1b:4a:a1:d9:41:e5:ca:28:1c:97:b0:f6:
                    dc:e6:01:0d:dc:fc:cc:bb:f4:c0:ad:6e:5c:8d:59:
                    ab:62:e0:47:8f:0a:48:ba:4a:93:2f:db:7c:4b:83:
                    c6:a2:01:53:22:d1:8a:34:fe:41:89:6c:95:dd:79:
                    02:09:7f:c3:f7:86:d8:6e:f8:c6:d7:fc:7d:9e:95:
                    52:3f:27:5a:74:07:00:64:4c:92:67:b1:60:a6:63:
                    d4:52:3a:6d:62:af:10:cf:ee:84:a8:5e:8f:a5:ab:
                    2c:ca:34:e6:be:26:a8:7c:8a:23:9e:a6:90:e2:3c:
                    39:38:1c:2e:6c:2f:52:e7:01:1b:b3:f5:36:aa:ad:
                    65:ac:87:95:01:05:84:73:d4:25:70:40:ab:98:61:
                    d7:45:a2:6d:9e:86:6f:b1:68:33:b3:64:0f:b1:cd:
                    76:27:83:cd:2a:96:67:da:fe:26:cc:e2:83:96:85:
                    c5:22:17:2d:08:25:79:b0:ce:76:2d:af:cc:9a:f4:
                    6a:13:df
                Exponent: 65537 (0x10001)
        X509v3 extensions:
            X509v3 Subject Alternative Name: 
                DNS:test-ca
            X509v3 Subject Key Identifier: 
                7E:23:BF:98:68:F1:9F:FB:80:13:D7:52:42:49:E9:1C:E1:95:07:79
            X509v3 Authority Key Identifier: 
                keyid:7E:23:BF:98:68:F1:9F:FB:80:13:D7:52:42:49:E9:1C:E1:95:07:79

            X509v3 Basic Constraints: 
                CA:TRUE
            X509v3 Key Usage: 
                Digital Signature, Non Repudiation, Key Encipherment, Data Encipherment, Certificate Sign, CRL Sign
            X509v3 Extended Key Usage: 
                TLS Web Server Authentication, TLS Web Client Authentication, Time Stamping
    Signature Algorithm: sha256WithRSAEncryption
         a1:aa:99:72:1f:02:65:ac:91:54:bb:db:64:9d:81:7d:7c:0a:
         cf:bd:1c:22:f6:8f:25:e2:8b:a7:5f:9d:22:f1:bd:e2:4c:9b:
         2a:22:cb:88:ba:e5:c4:73:09:a1:11:f7:b5:47:6f:4e:c7:cd:
         05:8e:85:52:ea:8e:55:8a:ed:56:e1:cb:14:71:e9:58:05:62:
         60:15:51:9e:2f:57:62:b6:c5:60:74:37:0d:85:67:b1:3e:ce:
         54:0e:6b:98:1b:01:9b:a6:85:ac:74:bb:b4:4b:46:03:3c:8a:
         40:4a:d4:34:f5:94:29:36:a5:b5:f8:19:5b:57:38:fb:78:d7:
         74:a9:52:df:80:be:76:c8:b0:00:d1:43:74:d8:2c:98:a7:ce:
         c0:9d:a8:86:c2:f6:90:97:69:4c:b5:4f:1a:39:45:78:e3:96:
         0e:8e:7b:45:be:68:53:ac:f5:93:99:40:df:65:0f:89:2f:89:
         3b:68:6f:e6:84:e1:cf:8b:9d:5c:74:8e:8d:dc:6b:79:f5:c2:
         b4:26:fa:d4:84:64:31:21:4f:14:5f:7f:23:df:08:a6:3b:09:
         56:f5:5f:d9:49:17:c5:5a:73:40:70:9c:27:b5:44:a3:60:7d:
         58:ba:7f:33:0b:e8:eb:3c:18:6f:f6:5f:32:2f:71:68:01:57:
         26:10:c8:c4:56:5d:6e:f4:be:ee:5d:7e:e6:a8:6d:8d:88:0e:
         87:6f:9b:af:de:f2:cb:a3:c2:27:a3:d5:1f:99:0d:84:fd:d9:
         1b:96:c5:14:49:aa:80:f3:d6:9d:fd:c9:c3:c1:d8:af:3b:a9:
         04:cf:bf:5f:53:60:24:e6:3e:af:d8:ad:5d:42:16:34:21:61:
         fd:7f:cb:4e:b7:95:da:3f:cd:9d:10:02:7c:65:13:ce:3c:61:
         d9:ac:24:35:15:e4:25:7a:68:d0:c7:a2:f6:e8:24:79:2d:c9:
         c8:1b:b3:e5:d6:6a:60:01:19:cb:68:87:dc:43:51:df:38:f3:
         92:6c:bb:a6:8b:b0:59:c7:d7:cd:51:37:9d:d8:15:a1:72:6d:
         8d:37:f8:d2:19:5a:8d:23:8d:47:54:3d:78:49:ad:aa:10:0b:
         76:9e:e2:4c:b8:bc:66:8f:7b:c2:8b:8c:95:9a:63:32:05:6a:
         7b:4b:16:3c:6e:2e:88:9d:b0:d4:5b:d6:78:e3:95:0b:c0:1e:
         1e:f6:53:76:a9:25:ac:21:d5:a0:be:16:18:51:b3:a2:5a:ed:
         0e:81:0c:1c:0f:aa:66:6d:a6:20:2c:7c:6a:34:b8:04:7d:37:
         37:b6:3d:8b:d6:20:d3:fd:85:a7:ea:08:e7:1c:b7:0b:74:dd:
         8c:9e:ff:51:95:14:9f:39
-----BEGIN CERTIFICATE-----
MIIFTjCCAzagAwIBAgIUDuzlPv2j+QXJGcq0ze+Q3eNPEyMwDQYJKoZIhvcNAQEL
BQAwEjEQMA4GA1UEAwwHdGVzdC1jYTAeFw0yMjA4MTkxNTI3NDFaFw00MjA4MTQx
NTI3NDFaMBIxEDAOBgNVBAMMB3Rlc3QtY2EwggIiMA0GCSqGSIb3DQEBAQUAA4IC
DwAwggIKAoICAQC5PJvqa1vWg+qHlOC5P7CY1Zoq0VpVaDB5TIADCSsnSIwiOMmr
9ri+i/q6Ghiu/ctLG4kNoE6/qgaCl5UrXraRfvUqyWjrSSFU6grgT0w0Gh2cpv/7
R3o8DGrpARbPx29RfYTdXyJ7Q8rUZcRPsNXtwY/8hK51FzX9tTDe+tsX1Jbd/MKL
q1tIqHgUcUmLev/bQeVwRxjGMQPtU8Tc29TIjclfVhdzXfKvFO+CV7oPlw550bJc
OYltW6hCl6oCCOMZROA8TFm82DwzKAmOr2IHX8wuAJFH4NU8h5/OY03PfAzP02R4
OUlWhMTWl1G9MjnLZL8UXIu+WFFJUqA/S9Syz595ybVkKupiooyBzikVjIzT/I+M
A8MIvbsIKdZVWg8uUeW7F5JMJ8dkEDsVfxVqMxLtPV88+H7PaPqpJBtKodlB5coo
HJew9tzmAQ3c/My79MCtblyNWati4EePCki6SpMv23xLg8aiAVMi0Yo0/kGJbJXd
eQIJf8P3hthu+MbX/H2elVI/J1p0BwBkTJJnsWCmY9RSOm1irxDP7oSoXo+lqyzK
NOa+Jqh8iiOeppDiPDk4HC5sL1LnARuz9TaqrWWsh5UBBYRz1CVwQKuYYddFom2e
hm+xaDOzZA+xzXYng80qlmfa/ibM4oOWhcUiFy0IJXmwznYtr8ya9GoT3wIDAQAB
o4GbMIGYMBIGA1UdEQQLMAmCB3Rlc3QtY2EwHQYDVR0OBBYEFH4jv5ho8Z/7gBPX
UkJJ6RzhlQd5MB8GA1UdIwQYMBaAFH4jv5ho8Z/7gBPXUkJJ6RzhlQd5MAwGA1Ud
EwQFMAMBAf8wCwYDVR0PBAQDAgH2MCcGA1UdJQQgMB4GCCsGAQUFBwMBBggrBgEF
BQcDAgYIKwYBBQUHAwgwDQYJKoZIhvcNAQELBQADggIBAKGqmXIfAmWskVS722Sd
gX18Cs+9HCL2jyXii6dfnSLxveJMmyoiy4i65cRzCaER97VHb07HzQWOhVLqjlWK
7VbhyxRx6VgFYmAVUZ4vV2K2xWB0Nw2FZ7E+zlQOa5gbAZumhax0u7RLRgM8ikBK
1DT1lCk2pbX4GVtXOPt413SpUt+AvnbIsADRQ3TYLJinzsCdqIbC9pCXaUy1Txo5
RXjjlg6Oe0W+aFOs9ZOZQN9lD4kviTtob+aE4c+LnVx0jo3ca3n1wrQm+tSEZDEh
TxRffyPfCKY7CVb1X9lJF8Vac0BwnCe1RKNgfVi6fzML6Os8GG/2XzIvcWgBVyYQ
yMRWXW70vu5dfuaobY2IDodvm6/e8sujwiej1R+ZDYT92RuWxRRJqoDz1p39ycPB
2K87qQTPv19TYCTmPq/YrV1CFjQhYf1/y063ldo/zZ0QAnxlE848YdmsJDUV5CV6
aNDHovboJHktycgbs+XWamABGctoh9xDUd8485Jsu6aLsFnH181RN53YFaFybY03
+NIZWo0jjUdUPXhJraoQC3ae4ky4vGaPe8KLjJWaYzIFantLFjxuLoidsNRb1njj
lQvAHh72U3apJawh1aC+FhhRs6Ja7Q6BDBwPqmZtpiAsfGo0uAR9Nze2PYvWINP9
hafqCOcctwt03Yye/1GVFJ85
-----END CERTIFICATE-----
