Certificate:
    Data:
        Version: 3 (0x2)
        Serial Number:
            0e:ec:e5:3e:fd:a3:f9:05:c9:19:ca:b4:cd:ef:90:dd:e3:4f:13:28
        Signature Algorithm: sha256WithRSAEncryption
        Issuer: CN=test-ca
        Validity
            Not Before: Aug 19 15:27:41 2022 GMT
            Not After : Aug 16 15:27:41 2032 GMT
        Subject: CN=test-kafka
        Subject Public Key Info:
            Public Key Algorithm: rsaEncryption
                RSA Public-Key: (2048 bit)
                Modulus:
                    00:c7:cc:0a:c2:61:0f:be:4e:d5:3c:4e:8c:5f:f2:
                    eb:6a:ef:33:59:ff:c3:49:9f:bc:b1:18:6c:6d:48:
                    67:d9:dd:f6:7c:b4:5e:32:b6:aa:69:ab:6d:4e:5c:
                    76:c9:fb:69:10:c4:d2:9d:6f:e7:00:de:bb:b1:97:
                    c7:c5:9e:c5:e7:8f:8d:47:f4:29:63:15:37:5d:b4:
                    72:20:17:be:0b:b1:ef:ee:2d:be:92:af:3e:b3:d8:
                    c9:fc:6a:a2:75:ca:51:db:8e:b6:22:6c:97:6d:38:
                    3f:e8:8e:53:54:e4:11:79:b1:5e:5a:d5:7e:f4:d0:
                    92:b6:ca:d5:b1:15:b8:05:13:d4:93:a4:5c:60:6d:
                    32:5d:fa:19:e9:5e:f6:7d:ee:0e:d6:f3:4f:db:4c:
                    23:c2:bc:a3:8f:59:1d:72:e8:dc:64:e9:f4:84:dc:
                    ed:4f:85:c6:44:99:25:2e:b6:e5:9e:41:76:a4:17:
                    c5:4c:85:96:96:6b:42:39:18:a2:ed:e5:b7:e7:5b:
                    19:86:22:cd:2b:31:3b:c9:01:91:53:42:3f:f2:df:
                    cc:b1:73:62:6b:80:aa:c6:47:4c:ba:70:17:a0:33:
                    8c:47:4c:af:a7:e0:bf:cc:16:30:2a:2a:1f:a2:aa:
                    d1:e1:7b:9a:06:6e:4b:34:63:d9:8b:f8:d8:23:99:
                    a5:c9
                Exponent: 65537 (0x10001)
        X509v3 extensions:
            X509v3 Subject Alternative Name: 
                DNS:test-kafka, DNS:localhost
            X509v3 Basic Constraints: 
                CA:FALSE
            X509v3 Key Usage: 
                Digital Signature, Non Repudiation, Key Encipherment
            X509v3 Extended Key Usage: 
                TLS Web Server Authentication, TLS Web Client Authentication, Code Signing, E-mail Protection
            X509v3 Subject Key Identifier: 
                63:7E:30:44:EE:7C:A0:86:DA:3C:21:F2:CC:41:9B:64:90:C2:6F:F8
            X509v3 Authority Key Identifier: 
                keyid:7E:23:BF:98:68:F1:9F:FB:80:13:D7:52:42:49:E9:1C:E1:95:07:79

    Signature Algorithm: sha256WithRSAEncryption
         78:b4:c6:9f:8e:79:39:bb:41:6c:4e:73:75:5d:d7:04:67:bd:
         41:4f:5b:86:82:55:a8:24:5c:d7:dc:71:8d:19:b0:a3:47:ee:
         bf:f2:a7:c1:ee:21:98:51:fd:76:3c:49:81:ef:ad:19:bc:e6:
         59:ca:7c:92:70:82:77:1a:d7:23:86:d7:00:3c:18:dc:79:43:
         f0:24:b5:f0:f8:25:0a:5d:a8:44:53:dc:6b:50:d5:97:5e:75:
         92:ad:b3:83:d0:6d:63:74:7f:81:a6:ec:1b:3c:c6:4e:dc:28:
         9b:e2:95:90:72:e0:a5:bc:df:98:5f:56:2c:52:d6:e2:d6:75:
         8a:f5:8d:26:b3:f9:00:7d:36:7c:f7:e9:c2:8a:40:d1:a5:ce:
         4b:b3:f4:97:cf:bd:39:66:01:57:2c:35:20:0c:99:c1:8d:58:
         ce:9c:10:61:9e:56:0b:ce:9d:3a:00:70:ad:25:23:78:9b:25:
         39:dd:f5:46:07:11:32:a4:0c:c1:1f:5e:6f:e2:88:ea:f9:59:
         c2:8a:0e:65:2e:30:ae:a6:e9:42:74:36:c5:4e:18:32:e9:ab:
         73:c8:14:f6:bb:5b:f4:77:07:58:1a:eb:78:2f:ea:2c:91:42:
         79:36:9f:6b:33:d4:5e:a9:c0:30:55:af:fb:dd:62:35:ba:35:
         0f:53:3e:e3:70:28:6b:91:4b:c6:cd:78:f7:72:9d:34:f5:fd:
         b1:1d:f2:0e:17:2d:c4:22:cf:a0:3b:9f:fb:75:01:3b:be:dc:
         90:a7:88:c7:b4:83:e6:2e:e8:5a:5f:c9:ec:b2:3a:31:89:1a:
         f7:4b:e9:43:51:b2:db:c5:1b:0e:e9:c3:f9:75:6c:e2:1c:2f:
         25:43:2d:49:d7:32:ad:aa:dd:2a:a1:2b:5d:b6:46:db:47:d9:
         84:b7:2c:40:16:bc:da:de:49:f1:8d:d8:79:30:cd:71:06:9b:
         c2:af:3c:e0:28:8d:65:2f:72:6f:a4:e2:c5:48:f9:dc:7b:9a:
         76:05:ec:61:89:71:27:ab:ed:c5:72:79:57:7b:4f:00:da:e3:
         8d:4d:8a:bc:40:09:06:de:15:38:7b:9f:96:76:a4:f4:c2:c6:
         57:40:2a:b1:8d:4a:3f:17:66:16:29:6b:22:70:04:31:ac:3f:
         ab:8c:7f:a8:48:60:c8:8b:49:f3:b0:dd:cb:a3:95:12:87:95:
         5f:d6:17:fc:cc:5f:c9:2c:11:8e:f3:99:ae:39:e2:ef:d5:35:
         ac:17:e4:88:5f:60:aa:9b:54:4c:94:12:b2:80:72:c0:66:95:
         91:8a:13:ad:24:33:7e:56:e4:09:04:87:2b:48:8e:df:ea:b0:
         7c:9e:d1:6e:1a:c2:96:45
-----BEGIN CERTIFICATE-----
MIIEZjCCAk6gAwIBAgIUDuzlPv2j+QXJGcq0ze+Q3eNPEygwDQYJKoZIhvcNAQEL
BQAwEjEQMA4GA1UEAwwHdGVzdC1jYTAeFw0yMjA4MTkxNTI3NDFaFw0zMjA4MTYx
NTI3NDFaMBUxEzARBgNVBAMMCnRlc3Qta2Fma2EwggEiMA0GCSqGSIb3DQEBAQUA
A4IBDwAwggEKAoIBAQDHzArCYQ++TtU8Toxf8utq7zNZ/8NJn7yxGGxtSGfZ3fZ8
tF4ytqppq21OXHbJ+2kQxNKdb+cA3ruxl8fFnsXnj41H9CljFTddtHIgF74Lse/u
Lb6Srz6z2Mn8aqJ1ylHbjrYibJdtOD/ojlNU5BF5sV5a1X700JK2ytWxFbgFE9ST
pFxgbTJd+hnpXvZ97g7W80/bTCPCvKOPWR1y6Nxk6fSE3O1PhcZEmSUutuWeQXak
F8VMhZaWa0I5GKLt5bfnWxmGIs0rMTvJAZFTQj/y38yxc2JrgKrGR0y6cBegM4xH
TK+n4L/MFjAqKh+iqtHhe5oGbks0Y9mL+NgjmaXJAgMBAAGjgbAwga0wIAYDVR0R
BBkwF4IKdGVzdC1rYWZrYYIJbG9jYWxob3N0MAkGA1UdEwQCMAAwCwYDVR0PBAQD
AgXgMDEGA1UdJQQqMCgGCCsGAQUFBwMBBggrBgEFBQcDAgYIKwYBBQUHAwMGCCsG
AQUFBwMEMB0GA1UdDgQWBBRjfjBE7nyghto8IfLMQZtkkMJv+DAfBgNVHSMEGDAW
gBR+I7+YaPGf+4AT11JCSekc4ZUHeTANBgkqhkiG9w0BAQsFAAOCAgEAeLTGn455
ObtBbE5zdV3XBGe9QU9bhoJVqCRc19xxjRmwo0fuv/Knwe4hmFH9djxJge+tGbzm
Wcp8knCCdxrXI4bXADwY3HlD8CS18PglCl2oRFPca1DVl151kq2zg9BtY3R/gabs
GzzGTtwom+KVkHLgpbzfmF9WLFLW4tZ1ivWNJrP5AH02fPfpwopA0aXOS7P0l8+9
OWYBVyw1IAyZwY1YzpwQYZ5WC86dOgBwrSUjeJslOd31RgcRMqQMwR9eb+KI6vlZ
wooOZS4wrqbpQnQ2xU4YMumrc8gU9rtb9HcHWBrreC/qLJFCeTafazPUXqnAMFWv
+91iNbo1D1M+43Aoa5FLxs1493KdNPX9sR3yDhctxCLPoDuf+3UBO77ckKeIx7SD
5i7oWl/J7LI6MYka90vpQ1Gy28UbDunD+XVs4hwvJUMtSdcyrardKqErXbZG20fZ
hLcsQBa82t5J8Y3YeTDNcQabwq884CiNZS9yb6TixUj53HuadgXsYYlxJ6vtxXJ5
V3tPANrjjU2KvEAJBt4VOHuflnak9MLGV0AqsY1KPxdmFilrInAEMaw/q4x/qEhg
yItJ87Ddy6OVEoeVX9YX/MxfySwRjvOZrjni79U1rBfkiF9gqptUTJQSsoBywGaV
kYoTrSQzflbkCQSHK0iO3+qwfJ7RbhrClkU=
-----END CERTIFICATE-----
