Certificate:
    Data:
        Version: 3 (0x2)
        Serial Number:
            0e:ec:e5:3e:fd:a3:f9:05:c9:19:ca:b4:cd:ef:90:dd:e3:4f:13:26
        Signature Algorithm: sha256WithRSAEncryption
        Issuer: CN=test-ca
        Validity
            Not Before: Aug 19 15:27:41 2022 GMT
            Not After : Aug 16 15:27:41 2032 GMT
        Subject: CN=test-syslog-client-centos7
        Subject Public Key Info:
            Public Key Algorithm: rsaEncryption
                RSA Public-Key: (2048 bit)
                Modulus:
                    00:c6:a3:bc:32:aa:b2:f7:9b:ee:ec:5c:f4:86:75:
                    ad:5e:3a:27:8a:f4:c7:9a:65:ee:de:95:53:8c:11:
                    35:cd:81:30:63:5a:bf:b7:0c:d3:ce:d4:64:a5:7c:
                    5e:28:21:4d:78:95:f6:b8:52:f2:21:f4:bd:79:fd:
                    a9:23:36:dc:be:d9:35:6a:4f:bc:9b:00:5f:36:9f:
                    cb:b9:1b:a8:93:d5:de:c0:20:11:bc:3d:38:37:6e:
                    af:72:d8:d4:8c:e0:65:93:44:65:7d:74:c0:12:2f:
                    e0:cc:99:6b:27:1e:5d:ad:fa:dd:b6:9b:e9:45:99:
                    84:ee:be:ce:ba:73:56:46:6e:32:ed:33:e3:3e:5f:
                    c4:16:0b:8e:88:1e:6a:18:94:4e:75:8c:d1:7b:a0:
                    40:7d:be:27:be:ab:1c:93:37:43:66:cc:1a:a1:95:
                    df:11:a4:6b:f7:5c:b1:7b:88:9f:48:bc:3b:2e:49:
                    4b:4c:10:05:81:ad:3b:d5:ef:08:24:a0:da:65:33:
                    a4:85:39:97:a1:a8:1d:6b:e1:f3:08:ea:8e:45:71:
                    a1:47:c2:93:b3:b5:8d:b2:4d:13:bb:e1:8e:6f:56:
                    7c:52:5e:9a:3e:08:a2:a8:ea:bf:82:9c:83:4b:48:
                    bc:af:be:66:8a:5c:4b:8c:9c:ab:b9:40:98:70:d0:
                    ae:83
                Exponent: 65537 (0x10001)
        X509v3 extensions:
            X509v3 Subject Alternative Name: 
                DNS:test-syslog-client-centos7, DNS:localhost
            X509v3 Basic Constraints: 
                CA:FALSE
            X509v3 Key Usage: 
                Digital Signature, Non Repudiation, Key Encipherment
            X509v3 Extended Key Usage: 
                TLS Web Server Authentication, TLS Web Client Authentication, Code Signing, E-mail Protection
            X509v3 Subject Key Identifier: 
                AB:50:01:57:AF:A1:6D:C0:F9:8D:D0:DC:07:5C:B0:C6:99:F4:A3:5B
            X509v3 Authority Key Identifier: 
                keyid:7E:23:BF:98:68:F1:9F:FB:80:13:D7:52:42:49:E9:1C:E1:95:07:79

    Signature Algorithm: sha256WithRSAEncryption
         8f:91:6c:c5:40:28:59:6d:d6:f7:af:77:3d:04:53:03:0b:db:
         34:b9:35:35:6b:a7:d3:33:86:6a:21:8e:04:d2:cc:66:90:93:
         45:a6:d9:e0:d9:ca:2d:53:5d:91:a8:1d:c3:53:36:27:04:8b:
         1e:1a:72:48:60:ec:fb:5e:c1:c4:90:fb:61:9a:df:32:d3:2c:
         3f:16:60:37:f5:dc:98:8c:bb:74:1f:2c:fb:0e:7e:88:1e:aa:
         66:13:22:13:29:27:76:fb:1c:f9:e0:26:a9:12:05:a8:ab:f0:
         57:e0:3b:6d:d1:c9:69:d5:e1:3b:09:0a:5b:39:ba:d5:b1:54:
         38:14:0e:ae:27:6c:c7:02:b7:e1:0d:38:20:ba:21:6b:8e:87:
         c5:da:15:33:65:b0:2a:4e:c6:97:ef:84:f2:67:fd:2a:a5:7c:
         06:3c:66:6f:07:a4:f3:3c:69:4e:72:c4:ce:86:55:e3:5d:76:
         6d:5e:5e:43:f9:6f:44:92:1e:a4:03:30:26:88:ac:70:e5:2b:
         06:18:49:23:94:51:a9:7b:0a:b8:59:ed:a8:41:39:e5:ff:66:
         e8:d4:bc:b0:c2:1c:a9:26:27:64:f5:ed:19:cf:0b:92:90:44:
         44:47:5b:f7:1a:e8:31:32:82:2f:0e:06:54:a0:a5:aa:4f:b7:
         3a:e8:26:5c:11:0d:d6:bb:d6:83:f0:21:6d:ed:f0:cc:40:76:
         ce:d7:af:e9:fe:50:2d:cb:d0:2a:75:08:bd:f3:6d:91:29:5c:
         9e:7d:60:d0:c2:3c:68:5e:37:e6:05:d8:f4:23:44:3f:66:b5:
         45:75:e9:38:ea:db:ad:b7:4f:14:73:a4:87:b5:46:5c:fa:4c:
         f9:f9:b5:2a:99:39:b7:0e:91:4d:c1:94:4e:e5:3d:7d:10:5f:
         24:5f:5f:73:31:ad:ec:9e:db:6a:fa:98:d0:58:a1:74:49:77:
         31:8e:49:09:c5:bb:a8:48:4a:e2:c8:25:d6:4c:2d:e9:92:8b:
         6c:bc:b7:9e:87:32:84:fa:d7:8e:0d:96:bd:17:20:97:0b:4b:
         78:05:17:27:fe:cc:89:82:c1:55:b0:5b:41:3e:6a:b5:e3:a3:
         5d:60:0b:3a:47:23:5d:4f:26:f6:27:51:5c:d1:64:ad:e3:de:
         92:7f:93:d3:a4:b6:f9:4e:2c:dd:ba:97:93:87:cd:47:d8:70:
         dc:3b:8d:e0:fe:cf:e5:67:42:b3:fd:f8:3b:fd:1b:e1:64:8b:
         cd:9d:37:95:0e:22:7c:73:4f:dd:c1:1b:77:b6:4f:14:f8:ef:
         c0:d2:4e:c4:d2:9c:c9:f9:5f:54:28:c7:eb:9b:a8:13:7a:1b:
         23:5a:10:b0:d9:95:a2:10
-----BEGIN CERTIFICATE-----
MIIEhjCCAm6gAwIBAgIUDuzlPv2j+QXJGcq0ze+Q3eNPEyYwDQYJKoZIhvcNAQEL
BQAwEjEQMA4GA1UEAwwHdGVzdC1jYTAeFw0yMjA4MTkxNTI3NDFaFw0zMjA4MTYx
NTI3NDFaMCUxIzAhBgNVBAMMGnRlc3Qtc3lzbG9nLWNsaWVudC1jZW50b3M3MIIB
IjANBgkqhkiG9w0BAQEFAAOCAQ8AMIIBCgKCAQEAxqO8Mqqy95vu7Fz0hnWtXjon
ivTHmmXu3pVTjBE1zYEwY1q/twzTztRkpXxeKCFNeJX2uFLyIfS9ef2pIzbcvtk1
ak+8mwBfNp/LuRuok9XewCARvD04N26vctjUjOBlk0RlfXTAEi/gzJlrJx5drfrd
tpvpRZmE7r7OunNWRm4y7TPjPl/EFguOiB5qGJROdYzRe6BAfb4nvqsckzdDZswa
oZXfEaRr91yxe4ifSLw7LklLTBAFga071e8IJKDaZTOkhTmXoagda+HzCOqORXGh
R8KTs7WNsk0Tu+GOb1Z8Ul6aPgiiqOq/gpyDS0i8r75milxLjJyruUCYcNCugwID
AQABo4HAMIG9MDAGA1UdEQQpMCeCGnRlc3Qtc3lzbG9nLWNsaWVudC1jZW50b3M3
gglsb2NhbGhvc3QwCQYDVR0TBAIwADALBgNVHQ8EBAMCBeAwMQYDVR0lBCowKAYI
KwYBBQUHAwEGCCsGAQUFBwMCBggrBgEFBQcDAwYIKwYBBQUHAwQwHQYDVR0OBBYE
FKtQAVevoW3A+Y3Q3AdcsMaZ9KNbMB8GA1UdIwQYMBaAFH4jv5ho8Z/7gBPXUkJJ
6RzhlQd5MA0GCSqGSIb3DQEBCwUAA4ICAQCPkWzFQChZbdb3r3c9BFMDC9s0uTU1
a6fTM4ZqIY4E0sxmkJNFptng2cotU12RqB3DUzYnBIseGnJIYOz7XsHEkPthmt8y
0yw/FmA39dyYjLt0Hyz7Dn6IHqpmEyITKSd2+xz54CapEgWoq/BX4Dtt0clp1eE7
CQpbObrVsVQ4FA6uJ2zHArfhDTgguiFrjofF2hUzZbAqTsaX74TyZ/0qpXwGPGZv
B6TzPGlOcsTOhlXjXXZtXl5D+W9Ekh6kAzAmiKxw5SsGGEkjlFGpewq4We2oQTnl
/2bo1LywwhypJidk9e0ZzwuSkERER1v3GugxMoIvDgZUoKWqT7c66CZcEQ3Wu9aD
8CFt7fDMQHbO16/p/lAty9AqdQi9822RKVyefWDQwjxoXjfmBdj0I0Q/ZrVFdek4
6tutt08Uc6SHtUZc+kz5+bUqmTm3DpFNwZRO5T19EF8kX19zMa3snttq+pjQWKF0
SXcxjkkJxbuoSEriyCXWTC3pkotsvLeehzKE+teODZa9FyCXC0t4BRcn/syJgsFV
sFtBPmq146NdYAs6RyNdTyb2J1Fc0WSt496Sf5PTpLb5TizdupeTh81H2HDcO43g
/s/lZ0Kz/fg7/RvhZIvNnTeVDiJ8c0/dwRt3tk8U+O/A0k7E0pzJ+V9UKMfrm6gT
ehsjWhCw2ZWiEA==
-----END CERTIFICATE-----
