Certificate:
    Data:
        Version: 3 (0x2)
        Serial Number: 14484236672110353130 (0xc902588333d2daea)
    Signature Algorithm: sha256WithRSAEncryption
        Issuer: CN=test_ca
        Validity
            Not Before: Sep 27 16:51:31 2017 GMT
            Not After : Sep 25 16:51:31 2027 GMT
        Subject: CN=test_syslog_client_ubuntu1604
        Subject Public Key Info:
            Public Key Algorithm: rsaEncryption
                Public-Key: (2048 bit)
                Modulus:
                    00:b9:6e:bb:19:8d:f3:ad:ff:d7:96:bd:ce:6e:59:
                    0e:86:23:06:c2:f5:78:3c:d6:48:1f:ba:e1:18:f1:
                    2a:f8:1f:3b:e9:50:86:8e:97:e5:cb:b3:bd:ba:6b:
                    9e:6a:77:c2:e1:47:d2:23:96:76:6b:fb:54:29:59:
                    c0:ad:f5:96:f6:53:f9:a1:e3:f4:91:a0:0f:98:ae:
                    84:07:bd:0d:87:92:40:28:61:2f:e7:4a:b0:e3:90:
                    45:48:ed:fc:f6:9b:11:99:72:14:cc:aa:d9:3e:56:
                    52:3e:0f:f3:3b:00:17:3a:64:ad:d2:bd:8c:a2:28:
                    44:44:5e:f6:86:cc:b3:db:f1:ba:c2:e9:83:0c:1b:
                    bc:7d:2a:39:a3:b4:c2:19:88:6d:9a:8e:91:05:34:
                    db:fb:66:46:d3:3e:5e:be:eb:30:56:e5:93:a0:da:
                    f0:f2:44:8b:2e:73:a0:60:c1:44:f2:5d:27:3d:94:
                    1b:ef:6f:78:4b:c8:01:91:d1:4b:ad:e6:16:40:8f:
                    d7:70:87:2c:9f:04:93:d3:d5:d5:5f:ea:57:53:af:
                    16:93:0a:60:42:2b:1f:aa:a7:17:fd:36:38:42:34:
                    65:8a:8a:aa:dd:12:15:02:ff:b4:41:bb:0c:55:61:
                    3e:c9:27:d5:c7:a4:9f:fc:4c:14:35:6f:43:24:1a:
                    7e:f3
                Exponent: 65537 (0x10001)
        X509v3 extensions:
            X509v3 Subject Alternative Name: 
                DNS:test_syslog_client_ubuntu1604, DNS:localhost
            X509v3 Basic Constraints: 
                CA:FALSE
            X509v3 Key Usage: 
                Digital Signature, Non Repudiation, Key Encipherment
            X509v3 Extended Key Usage: 
                TLS Web Server Authentication, TLS Web Client Authentication, Code Signing, E-mail Protection
            X509v3 Subject Key Identifier: 
                B4:FD:DA:EF:68:D1:25:78:B7:60:7F:CD:B6:6A:F4:1A:83:5D:1B:93
            X509v3 Authority Key Identifier: 
                keyid:C5:5D:D6:32:A3:00:93:95:5A:F6:C1:18:73:32:30:E0:AE:74:24:EA

    Signature Algorithm: sha256WithRSAEncryption
         91:64:a5:94:3e:c3:2f:51:e7:38:8d:43:5b:90:95:d2:b8:31:
         89:d0:90:d4:be:10:3a:75:b1:05:9c:2f:9b:b2:c9:5d:e7:c3:
         50:b5:1a:82:35:68:f1:01:ae:1c:58:10:d2:49:a5:28:0c:f2:
         35:ba:eb:06:a4:76:bb:2d:dc:f4:ee:ee:91:59:f8:61:01:e3:
         6a:56:2d:aa:33:76:dc:a5:bb:7c:4e:f6:80:00:1a:5b:6f:98:
         41:b1:ed:84:d2:4f:42:8f:c1:24:42:2c:22:e7:4e:57:67:7a:
         e6:5a:de:78:7a:5c:c5:e5:4e:9e:dc:fa:2f:6e:7a:32:51:07:
         c1:b8:4d:f0:3b:b8:54:81:f6:57:1d:49:95:5d:eb:57:1a:69:
         1c:5d:4f:a3:83:da:2c:f6:21:0d:b6:76:66:dc:47:8f:44:1e:
         c2:3f:0f:a6:6e:95:c6:1e:52:a2:bd:85:00:1d:b9:1b:19:8a:
         01:db:3b:a8:2c:2d:48:d5:dd:82:e2:50:4c:6c:dc:7c:8e:4d:
         fe:f9:46:62:7f:a0:81:e9:f3:ff:c4:84:d0:86:a0:af:fe:04:
         f1:a8:9e:7c:aa:52:82:e3:a0:a5:6c:3a:c2:6e:da:83:de:aa:
         db:5f:fb:b7:d2:b9:3d:75:2e:d5:65:4a:cc:fd:4c:27:ca:78:
         04:97:19:96:6c:a7:1e:63:c5:07:92:36:9a:6d:ac:05:77:04:
         21:49:b6:86:5f:42:ad:10:de:1f:6f:b2:ad:a1:e4:60:68:f8:
         c7:18:4b:83:14:ef:a9:8b:8c:7d:68:b4:04:5c:31:7a:c8:07:
         c9:f3:13:3f:63:da:68:a9:30:e3:eb:9f:f5:28:0d:65:1d:6c:
         e2:52:3c:b8:24:62:ea:48:fa:75:ad:be:f5:1d:20:dd:fd:c0:
         c2:72:ca:ba:1b:64:9f:38:6e:07:81:4f:ba:a4:d5:cd:ec:a6:
         97:32:f6:ba:7c:13:3b:65:4a:2d:eb:d8:8e:51:dd:22:48:7d:
         5a:f5:b3:3c:45:65:5b:30:a2:ba:c0:1f:c3:81:06:0c:d1:1e:
         78:9f:a1:bf:2f:05:f6:b0:e5:8b:a8:29:48:01:03:92:ef:71:
         af:9f:99:48:65:7d:ab:71:eb:be:14:61:e7:46:4c:9d:76:5c:
         24:13:b3:57:d3:85:c5:93:3f:0b:54:ad:6c:91:85:5c:43:04:
         a1:85:c3:0d:56:8f:4e:bf:1b:76:96:3b:04:2f:b6:b3:60:f7:
         a0:2c:3d:e1:ca:86:49:78:6b:70:16:7f:50:ab:8d:b9:76:2d:
         0c:22:18:b3:15:9e:46:88:00:85:2b:65:03:63:c6:c3:2b:d9:
         50:21:43:15:07:f9:08:cc
-----BEGIN CERTIFICATE-----
MIIEgTCCAmmgAwIBAgIJAMkCWIMz0trqMA0GCSqGSIb3DQEBCwUAMBIxEDAOBgNV
BAMMB3Rlc3RfY2EwHhcNMTcwOTI3MTY1MTMxWhcNMjcwOTI1MTY1MTMxWjAoMSYw
JAYDVQQDDB10ZXN0X3N5c2xvZ19jbGllbnRfdWJ1bnR1MTYwNDCCASIwDQYJKoZI
hvcNAQEBBQADggEPADCCAQoCggEBALluuxmN863/15a9zm5ZDoYjBsL1eDzWSB+6
4RjxKvgfO+lQho6X5cuzvbprnmp3wuFH0iOWdmv7VClZwK31lvZT+aHj9JGgD5iu
hAe9DYeSQChhL+dKsOOQRUjt/PabEZlyFMyq2T5WUj4P8zsAFzpkrdK9jKIoRERe
9obMs9vxusLpgwwbvH0qOaO0whmIbZqOkQU02/tmRtM+Xr7rMFblk6Da8PJEiy5z
oGDBRPJdJz2UG+9veEvIAZHRS63mFkCP13CHLJ8Ek9PV1V/qV1OvFpMKYEIrH6qn
F/02OEI0ZYqKqt0SFQL/tEG7DFVhPskn1cekn/xMFDVvQyQafvMCAwEAAaOBwzCB
wDAzBgNVHREELDAqgh10ZXN0X3N5c2xvZ19jbGllbnRfdWJ1bnR1MTYwNIIJbG9j
YWxob3N0MAkGA1UdEwQCMAAwCwYDVR0PBAQDAgXgMDEGA1UdJQQqMCgGCCsGAQUF
BwMBBggrBgEFBQcDAgYIKwYBBQUHAwMGCCsGAQUFBwMEMB0GA1UdDgQWBBS0/drv
aNEleLdgf822avQag10bkzAfBgNVHSMEGDAWgBTFXdYyowCTlVr2wRhzMjDgrnQk
6jANBgkqhkiG9w0BAQsFAAOCAgEAkWSllD7DL1HnOI1DW5CV0rgxidCQ1L4QOnWx
BZwvm7LJXefDULUagjVo8QGuHFgQ0kmlKAzyNbrrBqR2uy3c9O7ukVn4YQHjalYt
qjN23KW7fE72gAAaW2+YQbHthNJPQo/BJEIsIudOV2d65lreeHpcxeVOntz6L256
MlEHwbhN8Du4VIH2Vx1JlV3rVxppHF1Po4PaLPYhDbZ2ZtxHj0Qewj8Ppm6Vxh5S
or2FAB25GxmKAds7qCwtSNXdguJQTGzcfI5N/vlGYn+ggenz/8SE0Iagr/4E8aie
fKpSguOgpWw6wm7ag96q21/7t9K5PXUu1WVKzP1MJ8p4BJcZlmynHmPFB5I2mm2s
BXcEIUm2hl9CrRDeH2+yraHkYGj4xxhLgxTvqYuMfWi0BFwxesgHyfMTP2PaaKkw
4+uf9SgNZR1s4lI8uCRi6kj6da2+9R0g3f3AwnLKuhtknzhuB4FPuqTVzeymlzL2
unwTO2VKLevYjlHdIkh9WvWzPEVlWzCiusAfw4EGDNEeeJ+hvy8F9rDli6gpSAED
ku9xr5+ZSGV9q3HrvhRh50ZMnXZcJBOzV9OFxZM/C1StbJGFXEMEoYXDDVaPTr8b
dpY7BC+2s2D3oCw94cqGSXhrcBZ/UKuNuXYtDCIYsxWeRogAhStlA2PGwyvZUCFD
FQf5CMw=
-----END CERTIFICATE-----
