Certificate:
    Data:
        Version: 3 (0x2)
        Serial Number:
            61:32:83:18:b7:6c:37:85:dd:3b:b6:08:29:62:b6:3e:84:07:a7:6e
        Signature Algorithm: sha256WithRSAEncryption
        Issuer: CN=test_ca
        Validity
            Not Before: Jun 11 19:45:02 2021 GMT
            Not After : Jun  9 19:45:02 2031 GMT
        Subject: CN=test_kafka
        Subject Public Key Info:
            Public Key Algorithm: rsaEncryption
                RSA Public-Key: (2048 bit)
                Modulus:
                    00:d4:fa:1f:0d:87:1f:27:a6:6e:e3:93:a5:cc:f8:
                    ad:59:06:69:40:e0:6c:a7:6e:d8:98:e1:ab:fd:63:
                    49:e0:cb:85:04:a5:e9:3f:fb:bc:a0:9d:72:59:71:
                    5e:63:f9:a3:c9:e2:a5:80:e1:44:9c:6c:64:2e:c2:
                    34:0c:0d:97:6d:f9:cc:92:78:83:80:dc:db:44:50:
                    2d:55:3f:ad:da:38:86:2a:85:14:b1:fb:1f:d1:1e:
                    e7:08:ec:b1:7a:01:24:ec:66:8b:f0:93:74:a2:6f:
                    c2:a6:e1:93:a3:75:66:65:9e:19:3c:6a:d7:ff:a7:
                    de:72:c8:85:9f:51:5f:2d:92:a1:9c:a9:58:7a:7e:
                    23:81:c7:22:d8:15:c5:0a:e8:d6:7b:bb:26:bb:36:
                    85:13:fb:ea:ae:13:75:0d:40:75:78:df:9a:df:47:
                    d8:52:ff:f7:fc:fa:62:6c:b2:13:9d:48:72:5d:eb:
                    1d:8a:99:f4:49:27:41:b0:7d:8c:8e:a5:a3:6c:6c:
                    7a:64:d7:4e:ff:50:82:19:8d:2f:87:68:7f:bf:cc:
                    07:cc:e6:87:98:e1:05:9b:cc:98:de:d2:25:6f:a3:
                    4f:c4:9e:da:8f:6c:69:29:7b:0a:fa:a4:2d:a3:71:
                    2c:ee:9c:85:eb:a4:ba:e7:ed:07:23:a3:d8:a0:f3:
                    2e:0d
                Exponent: 65537 (0x10001)
        X509v3 extensions:
            X509v3 Subject Alternative Name: 
                DNS:test_kafka, DNS:localhost
            X509v3 Basic Constraints: 
                CA:FALSE
            X509v3 Key Usage: 
                Digital Signature, Non Repudiation, Key Encipherment
            X509v3 Extended Key Usage: 
                TLS Web Server Authentication, TLS Web Client Authentication, Code Signing, E-mail Protection
            X509v3 Subject Key Identifier: 
                FD:10:1A:A3:F3:FB:DB:74:FC:8F:78:38:A5:88:29:35:26:99:F6:37
            X509v3 Authority Key Identifier: 
                keyid:9D:AC:EC:CC:91:0F:6D:29:B6:0F:D2:1E:45:69:83:29:2E:49:15:1A

    Signature Algorithm: sha256WithRSAEncryption
         4c:de:56:a9:5e:1d:20:5c:c3:a2:26:bc:45:1d:83:67:8c:bc:
         1c:04:0f:93:28:59:45:8c:c5:2f:c6:5d:44:b6:51:5f:06:23:
         27:30:71:19:94:26:ff:ce:e4:72:41:48:b3:89:42:2d:17:fc:
         28:36:4b:8d:a9:7b:8c:c8:5c:27:9d:89:e6:52:58:e6:3e:84:
         40:e7:40:f5:77:30:5f:f2:bb:ca:48:6a:2e:25:0a:80:c2:85:
         7b:33:94:34:03:10:1f:1f:6e:9e:ca:27:9b:d3:d4:76:8f:5f:
         41:39:e1:9f:3b:c6:1c:52:c2:6c:93:b7:cc:a6:e4:7d:e6:da:
         31:89:26:fc:6c:71:7e:eb:1d:0b:ca:98:87:6c:69:d8:f8:2e:
         ea:1b:b4:e9:4f:16:99:18:0f:d1:19:b0:67:45:c6:79:30:b9:
         32:48:22:c6:2c:1a:f2:62:4e:13:f8:2f:7e:fa:ff:e0:11:4d:
         2e:82:eb:9c:e0:76:24:81:ea:9d:38:2b:3f:7b:08:ec:0a:f0:
         3b:e6:62:94:07:61:0c:57:87:a5:68:1f:20:c0:4d:08:2f:ee:
         5e:66:7e:90:80:ea:08:83:47:80:47:cd:74:ba:26:ec:6f:01:
         95:10:43:ce:83:e8:6d:3b:96:85:07:d2:26:92:7b:c6:7f:fd:
         b4:09:6a:a2:ec:0e:7a:c0:62:fb:82:94:82:78:a3:13:64:a8:
         cc:14:4e:94:50:ec:34:93:4c:34:23:3b:46:26:ea:c8:65:62:
         e4:79:35:4e:30:b9:a4:7d:b6:23:43:67:c4:a9:08:f8:ef:95:
         ca:d2:f1:55:fa:94:18:82:c6:9c:5e:60:df:c8:af:dc:4d:3c:
         13:e0:48:19:2d:c0:22:75:bd:3b:21:a8:01:a5:87:50:4c:af:
         d5:03:38:30:17:50:17:0f:b5:b8:08:3a:c5:4b:68:b7:29:73:
         16:c0:2e:3c:a0:f2:91:82:66:de:24:d2:19:02:f1:32:0f:21:
         5f:fb:6a:fd:ae:7e:f7:8d:b8:ce:8c:0f:ff:34:5c:f8:9f:a6:
         9a:9c:18:79:a2:12:05:15:76:d4:9b:b5:52:4c:a1:38:e3:94:
         97:3c:4c:22:89:bd:32:99:90:18:d2:ee:ef:26:cc:5f:da:6a:
         e4:2e:e2:f7:15:5f:b2:78:e8:21:2e:56:ac:89:6b:21:43:cc:
         f9:82:21:07:1d:02:e7:aa:ce:50:12:52:9b:ca:51:65:55:8a:
         df:30:b0:fe:ce:1f:ae:bf:6d:56:bb:bb:e0:27:d6:af:4d:48:
         ea:94:a5:86:92:8b:f9:a7:50:7f:83:a8:bd:a2:4c:7f:8a:45:
         5d:09:28:5f:a5:af:c8:61
-----BEGIN CERTIFICATE-----
MIIEZjCCAk6gAwIBAgIUYTKDGLdsN4XdO7YIKWK2PoQHp24wDQYJKoZIhvcNAQEL
BQAwEjEQMA4GA1UEAwwHdGVzdF9jYTAeFw0yMTA2MTExOTQ1MDJaFw0zMTA2MDkx
OTQ1MDJaMBUxEzARBgNVBAMMCnRlc3Rfa2Fma2EwggEiMA0GCSqGSIb3DQEBAQUA
A4IBDwAwggEKAoIBAQDU+h8Nhx8npm7jk6XM+K1ZBmlA4GynbtiY4av9Y0ngy4UE
pek/+7ygnXJZcV5j+aPJ4qWA4UScbGQuwjQMDZdt+cySeIOA3NtEUC1VP63aOIYq
hRSx+x/RHucI7LF6ASTsZovwk3Sib8Km4ZOjdWZlnhk8atf/p95yyIWfUV8tkqGc
qVh6fiOBxyLYFcUK6NZ7uya7NoUT++quE3UNQHV435rfR9hS//f8+mJsshOdSHJd
6x2KmfRJJ0GwfYyOpaNsbHpk107/UIIZjS+HaH+/zAfM5oeY4QWbzJje0iVvo0/E
ntqPbGkpewr6pC2jcSzunIXrpLrn7Qcjo9ig8y4NAgMBAAGjgbAwga0wIAYDVR0R
BBkwF4IKdGVzdF9rYWZrYYIJbG9jYWxob3N0MAkGA1UdEwQCMAAwCwYDVR0PBAQD
AgXgMDEGA1UdJQQqMCgGCCsGAQUFBwMBBggrBgEFBQcDAgYIKwYBBQUHAwMGCCsG
AQUFBwMEMB0GA1UdDgQWBBT9EBqj8/vbdPyPeDiliCk1Jpn2NzAfBgNVHSMEGDAW
gBSdrOzMkQ9tKbYP0h5FaYMpLkkVGjANBgkqhkiG9w0BAQsFAAOCAgEATN5WqV4d
IFzDoia8RR2DZ4y8HAQPkyhZRYzFL8ZdRLZRXwYjJzBxGZQm/87kckFIs4lCLRf8
KDZLjal7jMhcJ52J5lJY5j6EQOdA9XcwX/K7ykhqLiUKgMKFezOUNAMQHx9unson
m9PUdo9fQTnhnzvGHFLCbJO3zKbkfebaMYkm/GxxfusdC8qYh2xp2Pgu6hu06U8W
mRgP0RmwZ0XGeTC5Mkgixiwa8mJOE/gvfvr/4BFNLoLrnOB2JIHqnTgrP3sI7Arw
O+ZilAdhDFeHpWgfIMBNCC/uXmZ+kIDqCINHgEfNdLom7G8BlRBDzoPobTuWhQfS
JpJ7xn/9tAlqouwOesBi+4KUgnijE2SozBROlFDsNJNMNCM7RibqyGVi5Hk1TjC5
pH22I0NnxKkI+O+VytLxVfqUGILGnF5g38iv3E08E+BIGS3AInW9OyGoAaWHUEyv
1QM4MBdQFw+1uAg6xUtotylzFsAuPKDykYJm3iTSGQLxMg8hX/tq/a5+9424zowP
/zRc+J+mmpwYeaISBRV21Ju1UkyhOOOUlzxMIom9MpmQGNLu7ybMX9pq5C7i9xVf
snjoIS5WrIlrIUPM+YIhBx0C56rOUBJSm8pRZVWK3zCw/s4frr9tVru74CfWr01I
6pSlhpKL+adQf4OovaJMf4pFXQkoX6WvyGE=
-----END CERTIFICATE-----
