Certificate:
    Data:
        Version: 3 (0x2)
        Serial Number: 14484236672110353126 (0xc902588333d2dae6)
    Signature Algorithm: sha256WithRSAEncryption
        Issuer: CN=test_ca
        Validity
            Not Before: Sep 27 16:51:31 2017 GMT
            Not After : Sep 22 16:51:31 2037 GMT
        Subject: CN=test_ca
        Subject Public Key Info:
            Public Key Algorithm: rsaEncryption
                Public-Key: (4096 bit)
                Modulus:
                    00:a8:81:57:b5:a7:74:68:77:6b:78:8d:a1:a6:01:
                    f4:ee:33:66:53:7e:c8:8a:55:da:a5:91:b0:4a:99:
                    72:81:9d:f0:6d:eb:af:1e:c9:27:31:c0:1d:f4:27:
                    5d:d8:a9:a5:f9:ec:eb:14:5c:e3:b8:23:db:4a:dc:
                    5d:2e:30:1d:03:00:25:a3:90:55:2e:aa:72:b2:90:
                    27:2a:04:fb:65:53:46:e0:1e:78:1a:82:f6:5b:dd:
                    97:ef:c9:3c:81:ce:e9:b3:ad:b0:e7:ba:8b:92:5c:
                    4c:68:b8:11:3d:55:8b:85:01:cf:0a:7c:ef:f6:af:
                    b5:bf:74:f3:32:f1:af:e0:37:44:07:a2:57:13:c6:
                    2f:25:c2:93:d0:76:6b:8c:96:2b:79:39:61:88:c4:
                    2c:46:a1:65:79:46:be:5b:97:c3:62:d7:72:73:ea:
                    9a:22:ad:8a:91:53:07:5e:ea:4a:4a:99:d5:ba:87:
                    37:84:30:5e:01:27:8a:6e:c1:49:47:21:ae:af:a2:
                    25:9a:27:2f:3b:96:57:c3:ba:4c:bd:d6:a7:64:6d:
                    64:1b:ad:51:6f:cd:6f:e9:7f:ab:fe:fe:b7:c7:8f:
                    c1:66:72:ef:ec:ac:34:52:eb:cc:cc:52:61:41:7f:
                    c0:07:f4:44:f0:bf:c7:30:4e:e3:f3:ca:67:c4:79:
                    f7:5f:df:16:62:f5:04:40:60:3a:da:7b:14:4f:9e:
                    ae:a9:f3:23:59:c4:5c:e0:a0:bb:90:ac:e6:b9:80:
                    56:9b:75:62:a6:d6:2b:c8:3b:e2:5d:30:00:dc:cf:
                    73:65:71:88:3c:ad:8a:f1:69:37:02:7d:02:bc:17:
                    92:e2:f1:b3:f6:55:34:77:b3:44:9e:1d:98:d5:b1:
                    1d:1c:15:2d:b7:bb:39:be:da:85:20:aa:31:11:f5:
                    64:ea:81:8b:ff:0d:38:1d:5d:fb:27:97:aa:68:03:
                    95:cb:87:4f:5f:e5:d6:ec:49:f7:f5:ff:04:ef:25:
                    ae:4c:0c:37:d1:57:37:d5:6c:86:72:fe:d5:8f:70:
                    47:18:27:d6:9b:6e:58:70:83:e5:46:52:33:a3:19:
                    0c:8a:31:b2:5a:a0:bb:53:e9:bf:5d:36:f6:d0:ed:
                    74:4d:a4:46:20:d1:5d:30:01:43:62:98:ca:df:dd:
                    c7:8a:74:7e:67:14:79:f4:ab:0d:e3:5a:2b:07:c7:
                    dd:df:2d:25:d1:9b:60:84:cc:51:90:b0:c4:99:c5:
                    86:2f:66:a8:c6:1f:7f:60:7a:21:5f:9f:26:bb:57:
                    bd:03:fc:7e:47:59:2e:6a:04:67:b1:e1:f9:56:51:
                    83:38:a0:53:8c:26:da:1e:34:5d:31:3a:10:49:da:
                    12:de:69
                Exponent: 65537 (0x10001)
        X509v3 extensions:
            X509v3 Subject Alternative Name: 
                DNS:test_ca
            X509v3 Subject Key Identifier: 
                C5:5D:D6:32:A3:00:93:95:5A:F6:C1:18:73:32:30:E0:AE:74:24:EA
            X509v3 Authority Key Identifier: 
                keyid:C5:5D:D6:32:A3:00:93:95:5A:F6:C1:18:73:32:30:E0:AE:74:24:EA

            X509v3 Basic Constraints: 
                CA:TRUE
            X509v3 Key Usage: 
                Digital Signature, Non Repudiation, Key Encipherment, Data Encipherment, Certificate Sign, CRL Sign
            X509v3 Extended Key Usage: 
                TLS Web Server Authentication, TLS Web Client Authentication, Time Stamping
    Signature Algorithm: sha256WithRSAEncryption
         36:a2:85:a1:7b:c3:d5:ea:4d:6b:23:b4:a0:42:2f:d0:6e:01:
         43:1b:7a:ec:29:aa:a7:64:2d:a1:46:7c:cf:17:da:4b:c7:89:
         c5:c1:cc:b1:62:af:1e:35:48:f6:3c:4a:85:68:b4:8b:27:86:
         bc:35:1b:8a:f2:c1:45:fe:46:3f:62:84:9a:43:c6:23:c1:61:
         11:b0:fa:8b:98:83:f1:d2:a7:34:a8:56:62:74:cc:2a:ae:0d:
         13:27:95:fd:82:44:8a:a4:f0:e1:dc:ca:c9:c6:a0:25:0b:e1:
         4e:9a:4c:43:56:d7:94:65:58:53:a8:37:e0:33:e8:1d:e7:c5:
         5e:b0:b6:47:8c:ee:e3:d0:6b:f4:ee:2b:58:b6:13:09:32:00:
         3d:2d:f7:1a:cd:1a:ce:6d:ff:66:d3:89:b6:ff:48:05:16:f3:
         15:0f:dd:eb:ad:3e:42:cf:f3:80:16:bd:b6:70:a4:56:1b:cf:
         11:a5:99:52:c1:f4:8b:e4:17:9a:d0:45:95:3e:31:36:37:d5:
         dd:95:63:46:51:b5:cb:4f:69:e4:7f:52:9c:9b:fd:97:f9:1c:
         39:fe:c8:ec:a6:50:52:ac:b0:00:24:ca:4c:78:d3:f1:35:b3:
         ef:70:8f:bb:47:a6:9d:d8:4f:43:dc:05:7c:7a:d0:5f:e0:40:
         7c:91:e8:fc:db:b9:41:63:2e:a5:42:d9:ac:fc:4a:8b:35:9b:
         56:d8:71:c9:22:4e:44:6d:65:63:d2:9e:af:4e:dc:4e:99:d3:
         6c:51:13:e8:2a:88:e7:fb:0a:7c:af:2a:84:9e:ba:7e:24:45:
         9e:50:d0:82:6a:ee:8b:70:96:6b:c2:05:37:73:a1:86:06:54:
         33:3f:ea:84:11:e6:cd:d6:88:84:21:92:6f:8f:5e:cb:2d:9e:
         d6:94:af:64:d7:d9:63:4e:d3:32:f8:83:7e:58:2d:65:46:43:
         e5:c1:42:ed:a3:5b:b7:fd:ad:c2:39:bd:0d:fa:bc:44:99:56:
         fd:d8:51:97:a8:13:8e:83:60:4d:b1:d6:b8:2f:54:fd:6d:56:
         4d:46:72:5c:8b:5f:aa:4c:9b:88:f2:cc:6d:b1:3e:44:a8:20:
         fc:16:af:4e:57:08:e8:90:6d:13:71:68:22:49:ea:0b:51:67:
         dc:0e:5d:8f:59:56:94:6c:63:4b:99:37:e1:94:d0:51:32:36:
         11:da:6b:f4:39:47:12:7d:94:bb:2c:bf:01:98:c0:04:71:81:
         fb:4e:75:15:da:c5:1a:59:28:49:8e:b8:1d:9f:46:11:42:e7:
         b2:74:8f:10:31:8d:60:d9:1e:1f:17:6e:a9:6b:65:8e:ce:6e:
         94:52:a8:2a:10:42:c3:69
-----BEGIN CERTIFICATE-----
MIIFQzCCAyugAwIBAgIJAMkCWIMz0trmMA0GCSqGSIb3DQEBCwUAMBIxEDAOBgNV
BAMMB3Rlc3RfY2EwHhcNMTcwOTI3MTY1MTMxWhcNMzcwOTIyMTY1MTMxWjASMRAw
DgYDVQQDDAd0ZXN0X2NhMIICIjANBgkqhkiG9w0BAQEFAAOCAg8AMIICCgKCAgEA
qIFXtad0aHdreI2hpgH07jNmU37IilXapZGwSplygZ3wbeuvHsknMcAd9Cdd2Kml
+ezrFFzjuCPbStxdLjAdAwAlo5BVLqpyspAnKgT7ZVNG4B54GoL2W92X78k8gc7p
s62w57qLklxMaLgRPVWLhQHPCnzv9q+1v3TzMvGv4DdEB6JXE8YvJcKT0HZrjJYr
eTlhiMQsRqFleUa+W5fDYtdyc+qaIq2KkVMHXupKSpnVuoc3hDBeASeKbsFJRyGu
r6IlmicvO5ZXw7pMvdanZG1kG61Rb81v6X+r/v63x4/BZnLv7Kw0UuvMzFJhQX/A
B/RE8L/HME7j88pnxHn3X98WYvUEQGA62nsUT56uqfMjWcRc4KC7kKzmuYBWm3Vi
ptYryDviXTAA3M9zZXGIPK2K8Wk3An0CvBeS4vGz9lU0d7NEnh2Y1bEdHBUtt7s5
vtqFIKoxEfVk6oGL/w04HV37J5eqaAOVy4dPX+XW7En39f8E7yWuTAw30Vc31WyG
cv7Vj3BHGCfWm25YcIPlRlIzoxkMijGyWqC7U+m/XTb20O10TaRGINFdMAFDYpjK
393HinR+ZxR59KsN41orB8fd3y0l0ZtghMxRkLDEmcWGL2aoxh9/YHohX58mu1e9
A/x+R1kuagRnseH5VlGDOKBTjCbaHjRdMToQSdoS3mkCAwEAAaOBmzCBmDASBgNV
HREECzAJggd0ZXN0X2NhMB0GA1UdDgQWBBTFXdYyowCTlVr2wRhzMjDgrnQk6jAf
BgNVHSMEGDAWgBTFXdYyowCTlVr2wRhzMjDgrnQk6jAMBgNVHRMEBTADAQH/MAsG
A1UdDwQEAwIB9jAnBgNVHSUEIDAeBggrBgEFBQcDAQYIKwYBBQUHAwIGCCsGAQUF
BwMIMA0GCSqGSIb3DQEBCwUAA4ICAQA2ooWhe8PV6k1rI7SgQi/QbgFDG3rsKaqn
ZC2hRnzPF9pLx4nFwcyxYq8eNUj2PEqFaLSLJ4a8NRuK8sFF/kY/YoSaQ8YjwWER
sPqLmIPx0qc0qFZidMwqrg0TJ5X9gkSKpPDh3MrJxqAlC+FOmkxDVteUZVhTqDfg
M+gd58VesLZHjO7j0Gv07itYthMJMgA9LfcazRrObf9m04m2/0gFFvMVD93rrT5C
z/OAFr22cKRWG88RpZlSwfSL5Bea0EWVPjE2N9XdlWNGUbXLT2nkf1Kcm/2X+Rw5
/sjsplBSrLAAJMpMeNPxNbPvcI+7R6ad2E9D3AV8etBf4EB8kej827lBYy6lQtms
/EqLNZtW2HHJIk5EbWVj0p6vTtxOmdNsURPoKojn+wp8ryqEnrp+JEWeUNCCau6L
cJZrwgU3c6GGBlQzP+qEEebN1oiEIZJvj17LLZ7WlK9k19ljTtMy+IN+WC1lRkPl
wULto1u3/a3COb0N+rxEmVb92FGXqBOOg2BNsda4L1T9bVZNRnJci1+qTJuI8sxt
sT5EqCD8Fq9OVwjokG0TcWgiSeoLUWfcDl2PWVaUbGNLmTfhlNBRMjYR2mv0OUcS
fZS7LL8BmMAEcYH7TnUV2sUaWShJjrgdn0YRQueydI8QMY1g2R4fF26pa2WOzm6U
UqgqEELDaQ==
-----END CERTIFICATE-----
