Certificate:
    Data:
        Version: 3 (0x2)
        Serial Number:
            0e:ec:e5:3e:fd:a3:f9:05:c9:19:ca:b4:cd:ef:90:dd:e3:4f:13:24
        Signature Algorithm: sha256WithRSAEncryption
        Issuer: CN=test-ca
        Validity
            Not Before: Aug 19 15:27:41 2022 GMT
            Not After : Aug 16 15:27:41 2032 GMT
        Subject: CN=test-syslog-server
        Subject Public Key Info:
            Public Key Algorithm: rsaEncryption
                RSA Public-Key: (2048 bit)
                Modulus:
                    00:dd:07:fe:8b:31:13:93:36:2c:ac:15:7c:d1:6e:
                    ac:c7:66:ab:e5:1d:e3:19:45:49:a9:13:5e:aa:dd:
                    22:93:5f:5b:6a:5e:fb:e7:b5:8a:3a:39:42:fb:76:
                    26:d9:25:e1:08:27:45:0f:59:df:dc:12:fe:f6:d1:
                    52:f6:a8:50:da:8e:09:1f:68:52:95:32:63:6c:1e:
                    94:67:23:60:32:f5:d7:ed:da:5c:95:ad:3f:4d:f0:
                    2e:c0:24:8e:5e:a0:ca:25:17:98:28:23:38:30:57:
                    5c:db:6e:7f:d9:89:3c:fa:ed:25:6a:c5:f2:71:ef:
                    f5:7c:86:26:d1:59:19:2a:d9:37:03:3b:21:e1:42:
                    79:f3:1f:04:e6:03:76:ec:fb:b7:b1:80:b4:42:e7:
                    72:f3:62:43:96:d3:c9:75:e8:ee:bb:93:43:63:bb:
                    e2:38:39:5f:99:7b:df:f8:3d:3b:21:02:cb:4c:5a:
                    d9:c7:01:95:61:06:00:e2:8e:bc:29:80:df:2a:8d:
                    2e:cd:5a:7b:5b:b7:c3:05:a6:88:8a:98:ba:c8:84:
                    58:37:1f:ef:3e:f4:7a:e8:e7:de:f0:7a:7f:45:26:
                    42:9b:b0:4e:a5:be:ad:3c:0d:85:c6:62:05:5c:f5:
                    0f:fd:97:f9:27:b1:f1:a5:04:16:85:5d:de:db:a5:
                    94:c7
                Exponent: 65537 (0x10001)
        X509v3 extensions:
            X509v3 Subject Alternative Name: 
                DNS:test-syslog-server, DNS:localhost
            X509v3 Basic Constraints: 
                CA:FALSE
            X509v3 Key Usage: 
                Digital Signature, Non Repudiation, Key Encipherment
            X509v3 Extended Key Usage: 
                TLS Web Server Authentication, TLS Web Client Authentication, Code Signing, E-mail Protection
            X509v3 Subject Key Identifier: 
                CD:CA:29:93:B9:64:F9:C1:97:23:72:9D:16:DA:A6:30:72:2F:B3:D9
            X509v3 Authority Key Identifier: 
                keyid:7E:23:BF:98:68:F1:9F:FB:80:13:D7:52:42:49:E9:1C:E1:95:07:79

    Signature Algorithm: sha256WithRSAEncryption
         91:b0:2c:35:58:4d:05:01:28:27:bd:da:5b:fa:15:34:89:b0:
         85:ce:22:7e:55:d1:cf:8f:55:4a:a4:63:78:6a:4b:6d:cf:a1:
         c2:34:77:46:ad:27:b7:19:00:d8:d4:25:08:3a:69:f1:9d:2d:
         53:b6:cb:6b:78:4f:52:c2:33:68:80:34:33:10:6a:ad:61:8e:
         b9:b6:e2:ce:5f:3b:e8:e2:f8:8b:28:46:26:ca:63:a5:43:79:
         22:70:48:86:a0:f9:b1:d3:0c:ff:b2:d3:54:e1:e9:6d:2f:d3:
         08:f1:60:38:ec:51:cd:5e:90:ff:b8:02:98:4f:f7:eb:3a:03:
         cb:bd:d0:fe:d0:7e:18:fe:4e:60:78:2c:16:13:33:e1:4b:1d:
         f0:50:b3:e1:e7:2c:1f:5b:07:60:d6:ae:ce:22:ea:92:b4:24:
         d1:b3:7a:bd:5d:65:db:11:51:e4:d6:66:26:fb:3c:38:2e:03:
         e1:3e:cb:a7:d8:7e:05:24:14:50:07:6f:61:86:40:b6:0c:1a:
         73:24:e9:4e:67:bd:86:b7:26:e1:0c:76:b3:e2:d2:cb:3e:2d:
         cf:24:ee:21:b2:ff:69:1f:33:20:ba:8d:50:2f:f1:fa:7b:4c:
         80:c2:2c:fd:81:22:44:67:85:3f:8b:45:09:bb:77:c2:3a:94:
         35:a0:4b:49:85:da:f5:1c:62:7d:e9:c6:0a:c5:91:34:f3:a8:
         c9:8d:2e:8b:0e:f4:5e:65:fc:e6:5c:3b:68:50:21:7e:c9:a3:
         88:67:f1:6c:57:5b:9c:43:72:1b:bb:28:dc:97:6d:44:2b:cc:
         5e:0b:67:9f:23:f5:88:75:f8:84:d6:11:9b:eb:d5:46:7a:2b:
         8c:13:98:09:41:05:5d:8c:fe:89:d9:a0:4c:a1:9e:95:f3:b2:
         a4:ae:ce:21:62:86:61:6a:8a:b9:f2:fc:ef:c8:1c:83:fe:41:
         f9:a0:45:14:e3:c1:6c:67:fd:95:3e:25:12:de:b4:2c:d4:22:
         a7:1f:39:bc:20:26:4b:8b:cc:a5:11:14:97:73:57:22:d9:95:
         77:47:f9:18:0f:6a:f2:c2:3c:c8:a3:ee:f7:04:3e:20:26:28:
         b1:89:58:d1:56:7b:be:90:fa:54:39:92:68:59:ce:6d:ff:c9:
         af:be:e5:75:85:7d:c8:ab:36:dc:2b:87:8f:e1:47:77:10:f4:
         df:ec:60:02:f9:99:6b:7f:0e:db:b9:cc:7e:8a:32:01:0b:5d:
         d7:31:b1:62:e5:21:e8:4a:fa:69:7f:13:c0:0f:dd:19:07:d1:
         29:e8:9a:78:1f:85:d0:4f:53:da:cd:e8:f0:f1:23:1e:27:68:
         05:b8:97:3c:e2:86:ee:66
-----BEGIN CERTIFICATE-----
MIIEdjCCAl6gAwIBAgIUDuzlPv2j+QXJGcq0ze+Q3eNPEyQwDQYJKoZIhvcNAQEL
BQAwEjEQMA4GA1UEAwwHdGVzdC1jYTAeFw0yMjA4MTkxNTI3NDFaFw0zMjA4MTYx
NTI3NDFaMB0xGzAZBgNVBAMMEnRlc3Qtc3lzbG9nLXNlcnZlcjCCASIwDQYJKoZI
hvcNAQEBBQADggEPADCCAQoCggEBAN0H/osxE5M2LKwVfNFurMdmq+Ud4xlFSakT
XqrdIpNfW2pe++e1ijo5Qvt2Jtkl4QgnRQ9Z39wS/vbRUvaoUNqOCR9oUpUyY2we
lGcjYDL11+3aXJWtP03wLsAkjl6gyiUXmCgjODBXXNtuf9mJPPrtJWrF8nHv9XyG
JtFZGSrZNwM7IeFCefMfBOYDduz7t7GAtELncvNiQ5bTyXXo7ruTQ2O74jg5X5l7
3/g9OyECy0xa2ccBlWEGAOKOvCmA3yqNLs1ae1u3wwWmiIqYusiEWDcf7z70eujn
3vB6f0UmQpuwTqW+rTwNhcZiBVz1D/2X+Sex8aUEFoVd3tullMcCAwEAAaOBuDCB
tTAoBgNVHREEITAfghJ0ZXN0LXN5c2xvZy1zZXJ2ZXKCCWxvY2FsaG9zdDAJBgNV
HRMEAjAAMAsGA1UdDwQEAwIF4DAxBgNVHSUEKjAoBggrBgEFBQcDAQYIKwYBBQUH
AwIGCCsGAQUFBwMDBggrBgEFBQcDBDAdBgNVHQ4EFgQUzcopk7lk+cGXI3KdFtqm
MHIvs9kwHwYDVR0jBBgwFoAUfiO/mGjxn/uAE9dSQknpHOGVB3kwDQYJKoZIhvcN
AQELBQADggIBAJGwLDVYTQUBKCe92lv6FTSJsIXOIn5V0c+PVUqkY3hqS23PocI0
d0atJ7cZANjUJQg6afGdLVO2y2t4T1LCM2iANDMQaq1hjrm24s5fO+ji+IsoRibK
Y6VDeSJwSIag+bHTDP+y01Th6W0v0wjxYDjsUc1ekP+4AphP9+s6A8u90P7Qfhj+
TmB4LBYTM+FLHfBQs+HnLB9bB2DWrs4i6pK0JNGzer1dZdsRUeTWZib7PDguA+E+
y6fYfgUkFFAHb2GGQLYMGnMk6U5nvYa3JuEMdrPi0ss+Lc8k7iGy/2kfMyC6jVAv
8fp7TIDCLP2BIkRnhT+LRQm7d8I6lDWgS0mF2vUcYn3pxgrFkTTzqMmNLosO9F5l
/OZcO2hQIX7Jo4hn8WxXW5xDchu7KNyXbUQrzF4LZ58j9Yh1+ITWEZvr1UZ6K4wT
mAlBBV2M/onZoEyhnpXzsqSuziFihmFqirny/O/IHIP+QfmgRRTjwWxn/ZU+JRLe
tCzUIqcfObwgJkuLzKURFJdzVyLZlXdH+RgPavLCPMij7vcEPiAmKLGJWNFWe76Q
+lQ5kmhZzm3/ya++5XWFfcirNtwrh4/hR3cQ9N/sYAL5mWt/Dtu5zH6KMgELXdcx
sWLlIehK+ml/E8AP3RkH0SnomngfhdBPU9rN6PDxIx4naAW4lzzihu5m
-----END CERTIFICATE-----
