Certificate:
    Data:
        Version: 3 (0x2)
        Serial Number:
            61:32:83:18:b7:6c:37:85:dd:3b:b6:08:29:62:b6:3e:84:07:a7:69
        Signature Algorithm: sha256WithRSAEncryption
        Issuer: CN=test_ca
        Validity
            Not Before: Jun 11 19:45:01 2021 GMT
            Not After : Jun  6 19:45:01 2041 GMT
        Subject: CN=test_ca
        Subject Public Key Info:
            Public Key Algorithm: rsaEncryption
                RSA Public-Key: (4096 bit)
                Modulus:
                    00:de:7e:ed:b4:4c:73:68:4f:62:db:58:13:44:6e:
                    10:2c:a1:05:91:8d:1d:4a:b5:cd:72:d5:2b:99:60:
                    13:48:35:4b:19:7f:8e:6f:83:f6:6c:7e:ca:75:c7:
                    34:cf:72:80:c5:17:5f:95:a0:64:24:ab:07:80:7d:
                    a3:1b:db:2e:8e:dc:71:e8:cd:44:5f:95:cd:8b:c2:
                    79:81:de:ae:42:98:02:a3:33:bf:cf:ca:76:bd:d0:
                    97:4b:e0:7d:d2:c5:fa:70:ab:22:43:aa:4e:aa:54:
                    cf:a8:e6:a3:78:a2:97:56:4c:0d:96:ee:d0:a0:2a:
                    22:a3:79:0e:87:05:fd:11:7d:25:fd:18:e8:8f:c7:
                    e3:a0:7a:da:a5:7b:84:df:00:c6:61:cf:27:b7:8f:
                    a3:ed:08:66:83:d2:e5:f3:c4:28:1e:39:cf:78:af:
                    70:33:fd:bb:59:d6:0c:dd:b0:bc:cc:82:93:50:04:
                    d3:12:43:8d:77:9f:e1:41:4e:47:c9:12:d7:f5:2b:
                    54:a4:9e:dd:95:5b:be:5f:e0:b5:4e:9f:1e:fe:bd:
                    14:8d:b0:40:87:c3:75:68:05:62:b4:82:56:af:a5:
                    cc:3b:51:32:76:70:4c:91:42:b4:dd:14:9c:65:b6:
                    38:8e:a6:40:e2:3d:eb:e9:fc:c2:54:00:f5:e0:5e:
                    59:44:d4:c9:5f:d1:2a:96:a7:10:47:a2:30:56:5b:
                    a3:00:a6:a4:e9:72:b3:68:c3:e6:7b:46:81:d8:c2:
                    54:20:4f:db:a1:88:81:69:c2:76:8e:c9:88:b1:3f:
                    98:0d:e8:4e:c9:42:2f:d8:a1:b6:42:f2:0d:4e:5b:
                    63:1a:00:53:c6:06:9e:b0:00:b6:f2:5e:b3:f4:1e:
                    10:22:f8:79:80:62:43:0b:9a:e9:a6:1a:e8:94:6e:
                    4b:38:e4:bb:8b:67:6b:59:15:86:c3:1f:15:71:47:
                    be:d3:e6:be:21:76:1b:ab:1b:df:8b:e1:cc:3d:74:
                    2f:6a:f7:be:2c:69:59:d7:5c:e9:1b:00:b7:a5:36:
                    41:81:85:ab:ce:35:31:a1:77:dc:c1:e2:d2:8f:e3:
                    b8:d6:9c:70:0f:b2:48:5f:4a:d5:ec:69:82:dc:47:
                    e3:47:5a:48:2d:0e:ec:59:62:41:67:78:49:e4:6b:
                    df:83:98:4a:bb:d6:68:0e:e5:44:59:42:8f:a7:bc:
                    40:7b:02:4c:35:b5:f4:7c:fa:b2:d2:d6:58:f1:32:
                    41:0f:5f:af:db:7b:ca:1d:a7:21:e2:f8:24:00:d5:
                    a1:6e:80:20:62:36:17:f1:20:6c:41:09:fc:1d:42:
                    04:13:23:52:ea:4d:7b:08:29:b5:29:91:3f:9b:f0:
                    de:9d:3d
                Exponent: 65537 (0x10001)
        X509v3 extensions:
            X509v3 Subject Alternative Name: 
                DNS:test_ca
            X509v3 Subject Key Identifier: 
                9D:AC:EC:CC:91:0F:6D:29:B6:0F:D2:1E:45:69:83:29:2E:49:15:1A
            X509v3 Authority Key Identifier: 
                keyid:9D:AC:EC:CC:91:0F:6D:29:B6:0F:D2:1E:45:69:83:29:2E:49:15:1A

            X509v3 Basic Constraints: 
                CA:TRUE
            X509v3 Key Usage: 
                Digital Signature, Non Repudiation, Key Encipherment, Data Encipherment, Certificate Sign, CRL Sign
            X509v3 Extended Key Usage: 
                TLS Web Server Authentication, TLS Web Client Authentication, Time Stamping
    Signature Algorithm: sha256WithRSAEncryption
         8f:3b:f3:09:88:10:ff:60:9a:55:ff:a7:38:b6:e6:10:ec:4d:
         40:6d:9d:b8:1d:36:68:3c:a7:44:37:47:a9:39:5c:9f:99:e5:
         4d:85:0f:e0:ca:4b:78:49:e3:0d:4b:db:40:e9:83:f8:e2:a1:
         cc:12:70:08:22:f9:a7:0b:b5:43:df:ed:bb:16:aa:e8:37:6d:
         ac:9d:2e:ec:96:a4:93:9e:b2:61:21:04:47:e2:ba:10:4e:39:
         cf:f4:a8:f7:60:c5:cb:1c:cb:e4:18:10:8a:5c:98:67:67:a3:
         9c:81:df:b2:cd:50:41:1e:7f:61:ad:67:f5:82:a0:76:f4:c3:
         84:62:80:e0:1e:33:b8:72:8a:79:66:27:f5:da:b0:b3:a7:71:
         70:f4:d0:15:ad:07:e7:89:a2:a1:5f:eb:cc:dd:21:7b:4e:18:
         e8:71:61:fb:c3:48:47:c2:94:c1:17:9a:7a:96:32:0f:a0:4d:
         26:f1:6f:08:a1:4e:99:e8:f0:08:5a:f4:64:a4:ff:e3:83:c3:
         e9:ea:d7:7c:25:45:03:52:25:c6:39:e2:6a:bc:df:3d:16:f8:
         2f:43:eb:ec:4b:89:01:be:33:ec:5d:d2:b5:60:de:d5:86:11:
         19:ed:73:af:2d:13:39:ad:fa:7f:99:63:eb:49:e1:cd:20:a8:
         20:16:4e:0e:0f:7a:dc:5b:4d:ca:a7:6e:88:7e:6a:1f:f5:40:
         71:96:2b:8f:e2:74:88:d8:c1:d3:c0:d6:a6:08:7e:95:ce:90:
         38:ac:a5:56:85:ca:9b:de:62:21:77:30:69:c7:08:2a:17:18:
         7b:03:36:7e:58:ce:ce:fd:cd:5e:d2:4e:c1:fe:11:c1:e3:21:
         80:f9:90:03:bd:0c:be:7d:11:fe:3c:ca:bc:b1:7c:3c:34:d2:
         82:27:6e:b4:36:d2:cd:67:dc:c8:52:00:46:f0:39:3d:a4:52:
         e1:5b:11:d4:88:0c:7b:87:44:cf:40:84:4e:c9:bf:7b:8f:bb:
         b3:24:64:5a:f7:3d:79:af:de:13:e7:68:af:79:aa:fb:fc:82:
         46:23:ab:12:a9:26:74:07:b9:6f:20:4d:44:72:ab:bb:37:b5:
         3b:4c:fb:72:5d:a4:b8:25:40:9a:43:1c:d2:a3:90:c9:03:ad:
         43:3e:6d:64:a0:eb:ac:13:9f:2e:14:e0:37:3d:53:5d:5a:23:
         2f:d2:f9:06:74:e8:32:d0:df:5a:a1:bb:c8:5d:1b:4c:f9:fd:
         da:eb:81:c4:26:cf:17:d3:4c:ee:60:eb:19:e8:d8:02:d4:bc:
         a1:8d:da:58:d3:37:c0:82:47:0a:36:bb:03:9f:7f:08:7a:e9:
         ab:fa:bc:79:61:7c:aa:76
-----BEGIN CERTIFICATE-----
MIIFTjCCAzagAwIBAgIUYTKDGLdsN4XdO7YIKWK2PoQHp2kwDQYJKoZIhvcNAQEL
BQAwEjEQMA4GA1UEAwwHdGVzdF9jYTAeFw0yMTA2MTExOTQ1MDFaFw00MTA2MDYx
OTQ1MDFaMBIxEDAOBgNVBAMMB3Rlc3RfY2EwggIiMA0GCSqGSIb3DQEBAQUAA4IC
DwAwggIKAoICAQDefu20THNoT2LbWBNEbhAsoQWRjR1Ktc1y1SuZYBNINUsZf45v
g/Zsfsp1xzTPcoDFF1+VoGQkqweAfaMb2y6O3HHozURflc2LwnmB3q5CmAKjM7/P
yna90JdL4H3SxfpwqyJDqk6qVM+o5qN4opdWTA2W7tCgKiKjeQ6HBf0RfSX9GOiP
x+Ogetqle4TfAMZhzye3j6PtCGaD0uXzxCgeOc94r3Az/btZ1gzdsLzMgpNQBNMS
Q413n+FBTkfJEtf1K1Sknt2VW75f4LVOnx7+vRSNsECHw3VoBWK0glavpcw7UTJ2
cEyRQrTdFJxltjiOpkDiPevp/MJUAPXgXllE1Mlf0SqWpxBHojBWW6MApqTpcrNo
w+Z7RoHYwlQgT9uhiIFpwnaOyYixP5gN6E7JQi/YobZC8g1OW2MaAFPGBp6wALby
XrP0HhAi+HmAYkMLmummGuiUbks45LuLZ2tZFYbDHxVxR77T5r4hdhurG9+L4cw9
dC9q974saVnXXOkbALelNkGBhavONTGhd9zB4tKP47jWnHAPskhfStXsaYLcR+NH
WkgtDuxZYkFneEnka9+DmEq71mgO5URZQo+nvEB7Akw1tfR8+rLS1ljxMkEPX6/b
e8odpyHi+CQA1aFugCBiNhfxIGxBCfwdQgQTI1LqTXsIKbUpkT+b8N6dPQIDAQAB
o4GbMIGYMBIGA1UdEQQLMAmCB3Rlc3RfY2EwHQYDVR0OBBYEFJ2s7MyRD20ptg/S
HkVpgykuSRUaMB8GA1UdIwQYMBaAFJ2s7MyRD20ptg/SHkVpgykuSRUaMAwGA1Ud
EwQFMAMBAf8wCwYDVR0PBAQDAgH2MCcGA1UdJQQgMB4GCCsGAQUFBwMBBggrBgEF
BQcDAgYIKwYBBQUHAwgwDQYJKoZIhvcNAQELBQADggIBAI878wmIEP9gmlX/pzi2
5hDsTUBtnbgdNmg8p0Q3R6k5XJ+Z5U2FD+DKS3hJ4w1L20Dpg/jiocwScAgi+acL
tUPf7bsWqug3baydLuyWpJOesmEhBEfiuhBOOc/0qPdgxcscy+QYEIpcmGdno5yB
37LNUEEef2GtZ/WCoHb0w4RigOAeM7hyinlmJ/XasLOncXD00BWtB+eJoqFf68zd
IXtOGOhxYfvDSEfClMEXmnqWMg+gTSbxbwihTpno8Aha9GSk/+ODw+nq13wlRQNS
JcY54mq83z0W+C9D6+xLiQG+M+xd0rVg3tWGERntc68tEzmt+n+ZY+tJ4c0gqCAW
Tg4PetxbTcqnboh+ah/1QHGWK4/idIjYwdPA1qYIfpXOkDispVaFypveYiF3MGnH
CCoXGHsDNn5Yzs79zV7STsH+EcHjIYD5kAO9DL59Ef48yryxfDw00oInbrQ20s1n
3MhSAEbwOT2kUuFbEdSIDHuHRM9AhE7Jv3uPu7MkZFr3PXmv3hPnaK95qvv8gkYj
qxKpJnQHuW8gTURyq7s3tTtM+3JdpLglQJpDHNKjkMkDrUM+bWSg66wTny4U4Dc9
U11aIy/S+QZ06DLQ31qhu8hdG0z5/drrgcQmzxfTTO5g6xno2ALUvKGN2ljTN8CC
Rwo2uwOffwh66av6vHlhfKp2
-----END CERTIFICATE-----
