Certificate:
    Data:
        Version: 3 (0x2)
        Serial Number:
            61:32:83:18:b7:6c:37:85:dd:3b:b6:08:29:62:b6:3e:84:07:a7:6a
        Signature Algorithm: sha256WithRSAEncryption
        Issuer: CN=test_ca
        Validity
            Not Before: Jun 11 19:45:01 2021 GMT
            Not After : Jun  9 19:45:01 2031 GMT
        Subject: CN=test_syslog_server
        Subject Public Key Info:
            Public Key Algorithm: rsaEncryption
                RSA Public-Key: (2048 bit)
                Modulus:
                    00:c0:4e:29:b0:79:ef:43:8d:b6:31:97:05:02:db:
                    19:ee:e5:fe:fe:4b:fa:23:c0:23:13:9c:af:b1:71:
                    50:61:35:87:b7:63:c0:31:81:b9:6b:b7:42:86:32:
                    65:a0:45:94:d0:e5:f6:41:b6:18:c6:d1:ad:c0:c6:
                    76:1c:0b:ae:a6:66:40:d5:9f:15:b9:49:1f:70:4c:
                    fc:1b:6c:9f:2f:ea:cf:77:00:eb:6b:c1:68:6f:3a:
                    76:c2:94:ce:08:38:e7:59:63:23:55:9d:5d:3f:eb:
                    ea:65:ab:ef:0b:89:d1:6b:44:d4:0a:36:59:a9:72:
                    d7:26:86:43:f0:20:18:ce:6e:8e:8d:34:38:c2:bd:
                    77:f6:95:0d:48:a1:16:7b:ca:cb:a8:e1:20:9e:a3:
                    2b:a0:f0:62:e1:22:7d:75:53:38:59:80:ff:e3:0d:
                    28:99:ba:30:21:a1:45:6e:d3:05:c8:af:f2:b2:ec:
                    cc:be:e0:09:f6:33:ac:27:96:93:ca:77:c1:4d:d8:
                    52:3f:33:59:53:48:86:80:78:b4:47:e2:8e:e9:6d:
                    da:e2:28:a8:2d:9f:27:ac:b5:91:35:b6:e4:84:82:
                    d8:b4:b7:a2:34:75:e0:cb:f6:ea:5e:dc:f3:cd:1c:
                    c4:07:31:9c:aa:16:42:b9:a1:55:33:d6:eb:f1:88:
                    af:b5
                Exponent: 65537 (0x10001)
        X509v3 extensions:
            X509v3 Subject Alternative Name: 
                DNS:test_syslog_server, DNS:localhost
            X509v3 Basic Constraints: 
                CA:FALSE
            X509v3 Key Usage: 
                Digital Signature, Non Repudiation, Key Encipherment
            X509v3 Extended Key Usage: 
                TLS Web Server Authentication, TLS Web Client Authentication, Code Signing, E-mail Protection
            X509v3 Subject Key Identifier: 
                19:AB:12:3D:BA:C3:AD:69:58:66:E4:75:97:04:FE:3B:7C:56:90:FB
            X509v3 Authority Key Identifier: 
                keyid:9D:AC:EC:CC:91:0F:6D:29:B6:0F:D2:1E:45:69:83:29:2E:49:15:1A

    Signature Algorithm: sha256WithRSAEncryption
         81:5f:43:b3:03:da:aa:bc:1f:60:97:af:d8:ec:e6:bf:bc:1b:
         8a:50:66:56:a8:76:39:06:e8:de:b2:6d:f2:e0:ea:c5:a6:2a:
         d4:15:86:ff:09:d4:be:00:fb:06:d7:05:95:8c:d3:41:eb:b2:
         6c:96:fd:ed:66:d2:b2:1b:e9:90:b3:d3:eb:48:6d:ef:80:98:
         3b:c4:58:94:ba:34:1b:24:52:27:38:5a:35:d7:27:7d:86:96:
         18:43:26:0a:b3:0e:5f:9c:18:b2:f9:d9:9b:ff:26:39:38:0e:
         49:26:aa:a8:2e:7e:95:f5:61:29:7e:bc:9e:f3:a4:e7:23:33:
         fc:3a:56:03:92:49:b5:4f:7c:92:e1:e0:7d:65:fe:72:ea:84:
         1b:2c:ae:d1:41:19:ee:dc:33:2f:84:e1:c5:68:05:3b:d3:d3:
         79:9b:9e:3a:62:5b:1d:2d:fb:7b:0f:a0:be:7e:48:55:46:56:
         fc:15:f8:b6:87:a6:15:4e:df:22:d9:26:c8:8e:62:16:c3:df:
         ca:83:96:31:52:2d:d8:8d:d3:e6:08:de:60:5d:2c:f2:ed:19:
         de:5d:bc:b0:0c:65:75:8f:40:dd:ba:bc:80:be:ef:e5:c8:8b:
         fa:4d:cc:02:87:d7:7a:1f:6d:e2:fe:9a:ff:6f:25:20:42:e1:
         44:19:72:9a:31:56:e3:c0:84:37:da:b8:e8:0a:07:6e:80:d2:
         80:85:c0:7a:23:1f:4f:58:7b:85:ac:29:eb:fa:96:bc:30:07:
         8b:b3:b0:ca:ca:1a:d0:2d:4b:4c:88:1a:3c:17:91:09:6a:4a:
         e2:2d:70:b6:54:b3:81:e4:81:7d:53:87:f2:4e:3b:c1:38:e9:
         f3:be:bf:bd:8a:1a:dc:82:32:10:5a:e8:47:3f:bb:a2:92:78:
         27:68:4b:88:b3:73:c2:f8:d9:55:e8:87:fe:00:94:de:83:71:
         5a:34:8e:dc:96:28:51:c7:a0:0f:dd:42:09:01:da:1b:b5:ac:
         c4:be:d5:bc:8c:75:0d:24:57:cf:0d:53:20:92:dd:6b:89:ed:
         89:b8:8f:78:f0:12:af:a9:4d:73:61:1f:d5:7c:8b:c7:db:7e:
         d3:34:06:16:18:15:75:a8:a0:e8:b2:19:a8:96:11:26:2f:04:
         79:d2:2f:65:b0:44:33:c3:10:9b:1d:17:9a:a3:e9:eb:c0:4e:
         ca:22:1f:58:e3:48:23:cb:ca:41:44:c8:49:51:ef:9b:14:a8:
         db:f3:92:82:e6:32:1f:68:33:f6:f6:ca:e8:f9:40:8f:54:4d:
         8f:95:bc:68:b3:8c:7a:f9:c5:ef:c7:90:7c:17:32:42:39:3c:
         32:61:a5:c8:7b:9f:45:15
-----BEGIN CERTIFICATE-----
MIIEdjCCAl6gAwIBAgIUYTKDGLdsN4XdO7YIKWK2PoQHp2owDQYJKoZIhvcNAQEL
BQAwEjEQMA4GA1UEAwwHdGVzdF9jYTAeFw0yMTA2MTExOTQ1MDFaFw0zMTA2MDkx
OTQ1MDFaMB0xGzAZBgNVBAMMEnRlc3Rfc3lzbG9nX3NlcnZlcjCCASIwDQYJKoZI
hvcNAQEBBQADggEPADCCAQoCggEBAMBOKbB570ONtjGXBQLbGe7l/v5L+iPAIxOc
r7FxUGE1h7djwDGBuWu3QoYyZaBFlNDl9kG2GMbRrcDGdhwLrqZmQNWfFblJH3BM
/Btsny/qz3cA62vBaG86dsKUzgg451ljI1WdXT/r6mWr7wuJ0WtE1Ao2Waly1yaG
Q/AgGM5ujo00OMK9d/aVDUihFnvKy6jhIJ6jK6DwYuEifXVTOFmA/+MNKJm6MCGh
RW7TBciv8rLszL7gCfYzrCeWk8p3wU3YUj8zWVNIhoB4tEfijult2uIoqC2fJ6y1
kTW25ISC2LS3ojR14Mv26l7c880cxAcxnKoWQrmhVTPW6/GIr7UCAwEAAaOBuDCB
tTAoBgNVHREEITAfghJ0ZXN0X3N5c2xvZ19zZXJ2ZXKCCWxvY2FsaG9zdDAJBgNV
HRMEAjAAMAsGA1UdDwQEAwIF4DAxBgNVHSUEKjAoBggrBgEFBQcDAQYIKwYBBQUH
AwIGCCsGAQUFBwMDBggrBgEFBQcDBDAdBgNVHQ4EFgQUGasSPbrDrWlYZuR1lwT+
O3xWkPswHwYDVR0jBBgwFoAUnazszJEPbSm2D9IeRWmDKS5JFRowDQYJKoZIhvcN
AQELBQADggIBAIFfQ7MD2qq8H2CXr9js5r+8G4pQZlaodjkG6N6ybfLg6sWmKtQV
hv8J1L4A+wbXBZWM00HrsmyW/e1m0rIb6ZCz0+tIbe+AmDvEWJS6NBskUic4WjXX
J32GlhhDJgqzDl+cGLL52Zv/Jjk4DkkmqqgufpX1YSl+vJ7zpOcjM/w6VgOSSbVP
fJLh4H1l/nLqhBssrtFBGe7cMy+E4cVoBTvT03mbnjpiWx0t+3sPoL5+SFVGVvwV
+LaHphVO3yLZJsiOYhbD38qDljFSLdiN0+YI3mBdLPLtGd5dvLAMZXWPQN26vIC+
7+XIi/pNzAKH13ofbeL+mv9vJSBC4UQZcpoxVuPAhDfauOgKB26A0oCFwHojH09Y
e4WsKev6lrwwB4uzsMrKGtAtS0yIGjwXkQlqSuItcLZUs4HkgX1Th/JOO8E46fO+
v72KGtyCMhBa6Ec/u6KSeCdoS4izc8L42VXoh/4AlN6DcVo0jtyWKFHHoA/dQgkB
2hu1rMS+1byMdQ0kV88NUyCS3WuJ7Ym4j3jwEq+pTXNhH9V8i8fbftM0BhYYFXWo
oOiyGaiWESYvBHnSL2WwRDPDEJsdF5qj6evATsoiH1jjSCPLykFEyElR75sUqNvz
koLmMh9oM/b2yuj5QI9UTY+VvGizjHr5xe/HkHwXMkI5PDJhpch7n0UV
-----END CERTIFICATE-----
