Certificate:
    Data:
        Version: 3 (0x2)
        Serial Number: 14484236672110353127 (0xc902588333d2dae7)
    Signature Algorithm: sha256WithRSAEncryption
        Issuer: CN=test_ca
        Validity
            Not Before: Sep 27 16:51:31 2017 GMT
            Not After : Sep 25 16:51:31 2027 GMT
        Subject: CN=test_syslog_server
        Subject Public Key Info:
            Public Key Algorithm: rsaEncryption
                Public-Key: (2048 bit)
                Modulus:
                    00:a5:fa:ab:16:61:ea:6d:ac:67:ae:25:1f:b4:f6:
                    73:c1:3f:d6:e3:80:70:d8:49:b3:6e:5c:01:20:d0:
                    0b:2c:cf:5f:26:97:33:fa:84:8b:11:9b:95:5c:2f:
                    c5:19:dc:20:e6:f1:95:2d:df:d1:80:3b:86:5b:8f:
                    e5:7d:f6:e8:c8:02:c7:fd:e5:e1:c7:8b:5a:f0:fd:
                    0a:53:8e:f2:ca:1c:d7:77:6a:e2:32:4e:3b:84:49:
                    cb:c5:85:47:47:ef:64:4f:40:7f:14:b7:89:f9:21:
                    98:c9:e8:fb:9e:66:ed:e1:d6:c2:da:24:a0:ef:0d:
                    fb:0c:fa:2a:f4:e9:70:ad:e0:fb:7b:a3:33:f7:60:
                    1e:37:0b:51:57:74:4d:f7:30:53:67:d8:a6:fd:66:
                    b8:a9:c9:31:6a:6f:0b:ca:b0:73:73:ad:70:09:f7:
                    07:d1:6a:6b:3e:9c:9d:96:d4:08:0f:67:ff:d9:42:
                    1c:bb:8b:24:f7:fc:e3:d6:26:ee:a5:1e:83:28:73:
                    de:23:29:34:b2:8d:a4:b6:be:7f:ef:64:39:bf:1d:
                    54:87:64:6b:c0:88:3f:c4:c8:ae:50:41:9e:e8:bb:
                    20:b6:96:b7:fb:4f:06:dc:40:c0:26:0f:d8:72:f4:
                    c6:eb:ed:50:1b:e4:4f:6d:7d:b0:12:e2:e1:ab:ef:
                    82:8b
                Exponent: 65537 (0x10001)
        X509v3 extensions:
            X509v3 Subject Alternative Name: 
                DNS:test_syslog_server, DNS:localhost
            X509v3 Basic Constraints: 
                CA:FALSE
            X509v3 Key Usage: 
                Digital Signature, Non Repudiation, Key Encipherment
            X509v3 Extended Key Usage: 
                TLS Web Server Authentication, TLS Web Client Authentication, Code Signing, E-mail Protection
            X509v3 Subject Key Identifier: 
                16:F9:89:AA:57:99:F3:FE:9E:05:26:CB:31:46:0A:19:F4:BF:0B:C0
            X509v3 Authority Key Identifier: 
                keyid:C5:5D:D6:32:A3:00:93:95:5A:F6:C1:18:73:32:30:E0:AE:74:24:EA

    Signature Algorithm: sha256WithRSAEncryption
         1e:22:a0:45:64:d8:fd:fc:e0:85:5c:94:2d:16:a3:7a:fd:f2:
         d6:e1:4a:a7:84:6d:bc:ff:f9:f5:79:2a:45:26:69:a1:4f:84:
         95:80:92:0f:75:9d:71:37:72:f7:1b:d1:77:bd:95:b1:ab:fb:
         1f:64:98:35:b1:e4:33:5b:4c:21:9f:1d:4b:be:b6:8f:92:b9:
         d2:55:00:ab:56:fd:88:2a:ff:63:90:f8:6f:26:71:c0:a6:36:
         29:23:3e:f4:d8:9f:a0:48:36:c3:f1:8b:89:2a:da:f1:66:b1:
         3e:2e:33:4b:1e:80:77:ac:3a:5f:e6:3a:11:8c:8c:a1:8c:dd:
         66:27:af:fe:f8:ae:42:8a:74:a6:30:a1:b5:9e:ef:49:5f:b6:
         d4:3c:a0:3e:33:bf:6f:7b:83:f1:a8:5c:c3:c7:a0:d4:a2:da:
         e4:d9:9f:a5:63:7a:9e:90:22:04:a0:e4:56:a2:c7:f3:80:5d:
         67:71:f2:f3:45:78:c0:45:75:e2:ca:4d:7e:11:f3:ad:6f:73:
         99:49:f4:84:4b:b3:06:82:f0:c1:03:b7:eb:66:0c:a7:54:6b:
         76:fb:74:27:72:2e:ee:d4:01:cb:ba:d7:c7:35:10:bc:b4:ba:
         a4:36:06:3a:c8:c1:32:c9:1b:7e:22:2c:1e:f2:c3:25:02:52:
         a6:ef:2a:67:24:39:4c:e8:c5:ee:b4:6f:2d:0c:f2:d9:28:79:
         bb:0b:67:49:ad:cd:e4:4f:3c:49:a6:a5:44:da:43:7f:d4:6f:
         36:33:e8:d3:b4:05:13:47:c4:d6:99:85:f7:e0:1c:ce:6a:ff:
         dc:7f:c2:da:a3:fc:79:02:8a:d7:12:42:57:d3:d4:01:78:be:
         b0:dc:06:90:57:37:7b:bc:b3:62:0d:eb:cc:b5:10:dc:bd:da:
         18:d8:ea:f2:81:9a:4a:90:14:79:e4:97:6b:6a:ce:f4:5f:9b:
         3e:4c:fa:91:d4:8e:2e:1d:63:0c:fc:19:fd:12:fb:77:5c:e0:
         e0:87:c2:d3:9a:cf:d0:5a:50:f2:58:e9:8d:f8:41:65:25:6c:
         cc:31:34:3b:e2:3c:c2:79:62:09:60:03:67:75:40:9c:09:f1:
         5a:ea:64:13:03:66:d2:39:a8:c2:14:43:ba:e3:6b:24:5a:7e:
         86:7b:da:6c:f0:42:f0:a7:0d:7a:5c:e4:79:7f:b6:47:58:26:
         fa:90:e2:5c:53:7d:72:cc:ee:fd:fa:80:d7:68:cb:e5:40:11:
         09:33:4a:3b:5e:6e:5c:56:f8:29:bd:fd:65:e2:5f:e1:17:bb:
         07:f6:00:56:f4:14:ac:68:7b:d9:0d:97:2c:21:4c:4d:c3:57:
         c6:b1:05:9e:73:e8:09:da
-----BEGIN CERTIFICATE-----
MIIEazCCAlOgAwIBAgIJAMkCWIMz0trnMA0GCSqGSIb3DQEBCwUAMBIxEDAOBgNV
BAMMB3Rlc3RfY2EwHhcNMTcwOTI3MTY1MTMxWhcNMjcwOTI1MTY1MTMxWjAdMRsw
GQYDVQQDDBJ0ZXN0X3N5c2xvZ19zZXJ2ZXIwggEiMA0GCSqGSIb3DQEBAQUAA4IB
DwAwggEKAoIBAQCl+qsWYeptrGeuJR+09nPBP9bjgHDYSbNuXAEg0Assz18mlzP6
hIsRm5VcL8UZ3CDm8ZUt39GAO4Zbj+V99ujIAsf95eHHi1rw/QpTjvLKHNd3auIy
TjuEScvFhUdH72RPQH8Ut4n5IZjJ6PueZu3h1sLaJKDvDfsM+ir06XCt4Pt7ozP3
YB43C1FXdE33MFNn2Kb9ZripyTFqbwvKsHNzrXAJ9wfRams+nJ2W1AgPZ//ZQhy7
iyT3/OPWJu6lHoMoc94jKTSyjaS2vn/vZDm/HVSHZGvAiD/EyK5QQZ7ouyC2lrf7
TwbcQMAmD9hy9Mbr7VAb5E9tfbAS4uGr74KLAgMBAAGjgbgwgbUwKAYDVR0RBCEw
H4ISdGVzdF9zeXNsb2dfc2VydmVygglsb2NhbGhvc3QwCQYDVR0TBAIwADALBgNV
HQ8EBAMCBeAwMQYDVR0lBCowKAYIKwYBBQUHAwEGCCsGAQUFBwMCBggrBgEFBQcD
AwYIKwYBBQUHAwQwHQYDVR0OBBYEFBb5iapXmfP+ngUmyzFGChn0vwvAMB8GA1Ud
IwQYMBaAFMVd1jKjAJOVWvbBGHMyMOCudCTqMA0GCSqGSIb3DQEBCwUAA4ICAQAe
IqBFZNj9/OCFXJQtFqN6/fLW4UqnhG28//n1eSpFJmmhT4SVgJIPdZ1xN3L3G9F3
vZWxq/sfZJg1seQzW0whnx1LvraPkrnSVQCrVv2IKv9jkPhvJnHApjYpIz702J+g
SDbD8YuJKtrxZrE+LjNLHoB3rDpf5joRjIyhjN1mJ6/++K5CinSmMKG1nu9JX7bU
PKA+M79ve4PxqFzDx6DUotrk2Z+lY3qekCIEoORWosfzgF1ncfLzRXjARXXiyk1+
EfOtb3OZSfSES7MGgvDBA7frZgynVGt2+3Qnci7u1AHLutfHNRC8tLqkNgY6yMEy
yRt+Iiwe8sMlAlKm7ypnJDlM6MXutG8tDPLZKHm7C2dJrc3kTzxJpqVE2kN/1G82
M+jTtAUTR8TWmYX34BzOav/cf8Lao/x5AorXEkJX09QBeL6w3AaQVzd7vLNiDevM
tRDcvdoY2OrygZpKkBR55Jdras70X5s+TPqR1I4uHWMM/Bn9Evt3XODgh8LTms/Q
WlDyWOmN+EFlJWzMMTQ74jzCeWIJYANndUCcCfFa6mQTA2bSOajCFEO642skWn6G
e9ps8ELwpw16XOR5f7ZHWCb6kOJcU31yzO79+oDXaMvlQBEJM0o7Xm5cVvgpvf1l
4l/hF7sH9gBW9BSsaHvZDZcsIUxNw1fGsQWec+gJ2g==
-----END CERTIFICATE-----
